ARM GAS  /tmp/cckeRSC8.s 			page 1


   1              		.syntax unified
   2              		.cpu cortex-m7
   3              		.eabi_attribute 28, 1
   4              		.fpu fpv5-d16
   5              		.eabi_attribute 20, 1
   6              		.eabi_attribute 21, 1
   7              		.eabi_attribute 23, 3
   8              		.eabi_attribute 24, 1
   9              		.eabi_attribute 25, 1
  10              		.eabi_attribute 26, 1
  11              		.eabi_attribute 30, 1
  12              		.eabi_attribute 34, 1
  13              		.eabi_attribute 18, 4
  14              		.thumb
  15              		.syntax unified
  16              		.file	"stm32f7xx_ll_usb.c"
  17              		.text
  18              	.Ltext0:
  19              		.cfi_sections	.debug_frame
  20              		.section	.text.USB_CoreReset,"ax",%progbits
  21              		.align	2
  22              		.thumb
  23              		.thumb_func
  25              	USB_CoreReset:
  26              	.LFB168:
  27              		.file 1 "HALLIB/Src/stm32f7xx_ll_usb.c"
   1:HALLIB/Src/stm32f7xx_ll_usb.c **** /**
   2:HALLIB/Src/stm32f7xx_ll_usb.c ****   ******************************************************************************
   3:HALLIB/Src/stm32f7xx_ll_usb.c ****   * @file    stm32f7xx_ll_usb.c
   4:HALLIB/Src/stm32f7xx_ll_usb.c ****   * @author  MCD Application Team
   5:HALLIB/Src/stm32f7xx_ll_usb.c ****   * @brief   USB Low Layer HAL module driver.
   6:HALLIB/Src/stm32f7xx_ll_usb.c ****   *
   7:HALLIB/Src/stm32f7xx_ll_usb.c ****   *          This file provides firmware functions to manage the following
   8:HALLIB/Src/stm32f7xx_ll_usb.c ****   *          functionalities of the USB Peripheral Controller:
   9:HALLIB/Src/stm32f7xx_ll_usb.c ****   *           + Initialization/de-initialization functions
  10:HALLIB/Src/stm32f7xx_ll_usb.c ****   *           + I/O operation functions
  11:HALLIB/Src/stm32f7xx_ll_usb.c ****   *           + Peripheral Control functions
  12:HALLIB/Src/stm32f7xx_ll_usb.c ****   *           + Peripheral State functions
  13:HALLIB/Src/stm32f7xx_ll_usb.c ****   *
  14:HALLIB/Src/stm32f7xx_ll_usb.c ****   @verbatim
  15:HALLIB/Src/stm32f7xx_ll_usb.c ****   ==============================================================================
  16:HALLIB/Src/stm32f7xx_ll_usb.c ****                     ##### How to use this driver #####
  17:HALLIB/Src/stm32f7xx_ll_usb.c ****   ==============================================================================
  18:HALLIB/Src/stm32f7xx_ll_usb.c ****     [..]
  19:HALLIB/Src/stm32f7xx_ll_usb.c ****       (#) Fill parameters of Init structure in USB_OTG_CfgTypeDef structure.
  20:HALLIB/Src/stm32f7xx_ll_usb.c **** 
  21:HALLIB/Src/stm32f7xx_ll_usb.c ****       (#) Call USB_CoreInit() API to initialize the USB Core peripheral.
  22:HALLIB/Src/stm32f7xx_ll_usb.c **** 
  23:HALLIB/Src/stm32f7xx_ll_usb.c ****       (#) The upper HAL HCD/PCD driver will call the right routines for its internal processes.
  24:HALLIB/Src/stm32f7xx_ll_usb.c **** 
  25:HALLIB/Src/stm32f7xx_ll_usb.c ****   @endverbatim
  26:HALLIB/Src/stm32f7xx_ll_usb.c ****   ******************************************************************************
  27:HALLIB/Src/stm32f7xx_ll_usb.c ****   * @attention
  28:HALLIB/Src/stm32f7xx_ll_usb.c ****   *
  29:HALLIB/Src/stm32f7xx_ll_usb.c ****   * <h2><center>&copy; COPYRIGHT(c) 2017 STMicroelectronics</center></h2>
  30:HALLIB/Src/stm32f7xx_ll_usb.c ****   *
  31:HALLIB/Src/stm32f7xx_ll_usb.c ****   * Redistribution and use in source and binary forms, with or without modification,
ARM GAS  /tmp/cckeRSC8.s 			page 2


  32:HALLIB/Src/stm32f7xx_ll_usb.c ****   * are permitted provided that the following conditions are met:
  33:HALLIB/Src/stm32f7xx_ll_usb.c ****   *   1. Redistributions of source code must retain the above copyright notice,
  34:HALLIB/Src/stm32f7xx_ll_usb.c ****   *      this list of conditions and the following disclaimer.
  35:HALLIB/Src/stm32f7xx_ll_usb.c ****   *   2. Redistributions in binary form must reproduce the above copyright notice,
  36:HALLIB/Src/stm32f7xx_ll_usb.c ****   *      this list of conditions and the following disclaimer in the documentation
  37:HALLIB/Src/stm32f7xx_ll_usb.c ****   *      and/or other materials provided with the distribution.
  38:HALLIB/Src/stm32f7xx_ll_usb.c ****   *   3. Neither the name of STMicroelectronics nor the names of its contributors
  39:HALLIB/Src/stm32f7xx_ll_usb.c ****   *      may be used to endorse or promote products derived from this software
  40:HALLIB/Src/stm32f7xx_ll_usb.c ****   *      without specific prior written permission.
  41:HALLIB/Src/stm32f7xx_ll_usb.c ****   *
  42:HALLIB/Src/stm32f7xx_ll_usb.c ****   * THIS SOFTWARE IS PROVIDED BY THE COPYRIGHT HOLDERS AND CONTRIBUTORS "AS IS"
  43:HALLIB/Src/stm32f7xx_ll_usb.c ****   * AND ANY EXPRESS OR IMPLIED WARRANTIES, INCLUDING, BUT NOT LIMITED TO, THE
  44:HALLIB/Src/stm32f7xx_ll_usb.c ****   * IMPLIED WARRANTIES OF MERCHANTABILITY AND FITNESS FOR A PARTICULAR PURPOSE ARE
  45:HALLIB/Src/stm32f7xx_ll_usb.c ****   * DISCLAIMED. IN NO EVENT SHALL THE COPYRIGHT HOLDER OR CONTRIBUTORS BE LIABLE
  46:HALLIB/Src/stm32f7xx_ll_usb.c ****   * FOR ANY DIRECT, INDIRECT, INCIDENTAL, SPECIAL, EXEMPLARY, OR CONSEQUENTIAL
  47:HALLIB/Src/stm32f7xx_ll_usb.c ****   * DAMAGES (INCLUDING, BUT NOT LIMITED TO, PROCUREMENT OF SUBSTITUTE GOODS OR
  48:HALLIB/Src/stm32f7xx_ll_usb.c ****   * SERVICES; LOSS OF USE, DATA, OR PROFITS; OR BUSINESS INTERRUPTION) HOWEVER
  49:HALLIB/Src/stm32f7xx_ll_usb.c ****   * CAUSED AND ON ANY THEORY OF LIABILITY, WHETHER IN CONTRACT, STRICT LIABILITY,
  50:HALLIB/Src/stm32f7xx_ll_usb.c ****   * OR TORT (INCLUDING NEGLIGENCE OR OTHERWISE) ARISING IN ANY WAY OUT OF THE USE
  51:HALLIB/Src/stm32f7xx_ll_usb.c ****   * OF THIS SOFTWARE, EVEN IF ADVISED OF THE POSSIBILITY OF SUCH DAMAGE.
  52:HALLIB/Src/stm32f7xx_ll_usb.c ****   *
  53:HALLIB/Src/stm32f7xx_ll_usb.c ****   ******************************************************************************
  54:HALLIB/Src/stm32f7xx_ll_usb.c ****   */
  55:HALLIB/Src/stm32f7xx_ll_usb.c **** 
  56:HALLIB/Src/stm32f7xx_ll_usb.c **** /* Includes ------------------------------------------------------------------*/
  57:HALLIB/Src/stm32f7xx_ll_usb.c **** #include "stm32f7xx_hal.h"
  58:HALLIB/Src/stm32f7xx_ll_usb.c **** 
  59:HALLIB/Src/stm32f7xx_ll_usb.c **** /** @addtogroup STM32F7xx_LL_USB_DRIVER
  60:HALLIB/Src/stm32f7xx_ll_usb.c ****   * @{
  61:HALLIB/Src/stm32f7xx_ll_usb.c ****   */
  62:HALLIB/Src/stm32f7xx_ll_usb.c **** 
  63:HALLIB/Src/stm32f7xx_ll_usb.c **** #if defined (HAL_PCD_MODULE_ENABLED) || defined (HAL_HCD_MODULE_ENABLED)
  64:HALLIB/Src/stm32f7xx_ll_usb.c **** 
  65:HALLIB/Src/stm32f7xx_ll_usb.c **** /* Private typedef -----------------------------------------------------------*/
  66:HALLIB/Src/stm32f7xx_ll_usb.c **** /* Private define ------------------------------------------------------------*/
  67:HALLIB/Src/stm32f7xx_ll_usb.c **** /* Private macro -------------------------------------------------------------*/
  68:HALLIB/Src/stm32f7xx_ll_usb.c **** /* Private variables ---------------------------------------------------------*/
  69:HALLIB/Src/stm32f7xx_ll_usb.c **** /* Private function prototypes -----------------------------------------------*/
  70:HALLIB/Src/stm32f7xx_ll_usb.c **** /* Private functions ---------------------------------------------------------*/
  71:HALLIB/Src/stm32f7xx_ll_usb.c **** static HAL_StatusTypeDef USB_CoreReset(USB_OTG_GlobalTypeDef *USBx);
  72:HALLIB/Src/stm32f7xx_ll_usb.c **** 
  73:HALLIB/Src/stm32f7xx_ll_usb.c **** #ifdef USB_HS_PHYC
  74:HALLIB/Src/stm32f7xx_ll_usb.c **** static HAL_StatusTypeDef USB_HS_PHYCInit(USB_OTG_GlobalTypeDef *USBx);
  75:HALLIB/Src/stm32f7xx_ll_usb.c **** #endif
  76:HALLIB/Src/stm32f7xx_ll_usb.c **** 
  77:HALLIB/Src/stm32f7xx_ll_usb.c **** /* Exported functions --------------------------------------------------------*/
  78:HALLIB/Src/stm32f7xx_ll_usb.c **** /** @defgroup LL_USB_Exported_Functions USB Low Layer Exported Functions
  79:HALLIB/Src/stm32f7xx_ll_usb.c ****   * @{
  80:HALLIB/Src/stm32f7xx_ll_usb.c ****   */
  81:HALLIB/Src/stm32f7xx_ll_usb.c **** 
  82:HALLIB/Src/stm32f7xx_ll_usb.c **** /** @defgroup LL_USB_Group1 Initialization/de-initialization functions
  83:HALLIB/Src/stm32f7xx_ll_usb.c ****  *  @brief    Initialization and Configuration functions
  84:HALLIB/Src/stm32f7xx_ll_usb.c ****  *
  85:HALLIB/Src/stm32f7xx_ll_usb.c **** @verbatim
  86:HALLIB/Src/stm32f7xx_ll_usb.c ****  ===============================================================================
  87:HALLIB/Src/stm32f7xx_ll_usb.c ****               ##### Initialization/de-initialization functions #####
  88:HALLIB/Src/stm32f7xx_ll_usb.c ****  ===============================================================================
ARM GAS  /tmp/cckeRSC8.s 			page 3


  89:HALLIB/Src/stm32f7xx_ll_usb.c ****     [..]  This section provides functions allowing to:
  90:HALLIB/Src/stm32f7xx_ll_usb.c **** 
  91:HALLIB/Src/stm32f7xx_ll_usb.c **** @endverbatim
  92:HALLIB/Src/stm32f7xx_ll_usb.c ****   * @{
  93:HALLIB/Src/stm32f7xx_ll_usb.c ****   */
  94:HALLIB/Src/stm32f7xx_ll_usb.c **** 
  95:HALLIB/Src/stm32f7xx_ll_usb.c **** /**
  96:HALLIB/Src/stm32f7xx_ll_usb.c ****   * @brief  Initializes the USB Core
  97:HALLIB/Src/stm32f7xx_ll_usb.c ****   * @param  USBx USB Instance
  98:HALLIB/Src/stm32f7xx_ll_usb.c ****   * @param  cfg  pointer to a USB_OTG_CfgTypeDef structure that contains
  99:HALLIB/Src/stm32f7xx_ll_usb.c ****   *         the configuration information for the specified USBx peripheral.
 100:HALLIB/Src/stm32f7xx_ll_usb.c ****   * @retval HAL status
 101:HALLIB/Src/stm32f7xx_ll_usb.c ****   */
 102:HALLIB/Src/stm32f7xx_ll_usb.c **** HAL_StatusTypeDef USB_CoreInit(USB_OTG_GlobalTypeDef *USBx, USB_OTG_CfgTypeDef cfg)
 103:HALLIB/Src/stm32f7xx_ll_usb.c **** {
 104:HALLIB/Src/stm32f7xx_ll_usb.c ****   if (cfg.phy_itface == USB_OTG_ULPI_PHY)
 105:HALLIB/Src/stm32f7xx_ll_usb.c ****   {
 106:HALLIB/Src/stm32f7xx_ll_usb.c **** 
 107:HALLIB/Src/stm32f7xx_ll_usb.c ****     USBx->GCCFG &= ~(USB_OTG_GCCFG_PWRDWN);
 108:HALLIB/Src/stm32f7xx_ll_usb.c **** 
 109:HALLIB/Src/stm32f7xx_ll_usb.c ****     /* Init The ULPI Interface */
 110:HALLIB/Src/stm32f7xx_ll_usb.c ****     USBx->GUSBCFG &= ~(USB_OTG_GUSBCFG_TSDPS | USB_OTG_GUSBCFG_ULPIFSLS | USB_OTG_GUSBCFG_PHYSEL);
 111:HALLIB/Src/stm32f7xx_ll_usb.c **** 
 112:HALLIB/Src/stm32f7xx_ll_usb.c ****     /* Select vbus source */
 113:HALLIB/Src/stm32f7xx_ll_usb.c ****     USBx->GUSBCFG &= ~(USB_OTG_GUSBCFG_ULPIEVBUSD | USB_OTG_GUSBCFG_ULPIEVBUSI);
 114:HALLIB/Src/stm32f7xx_ll_usb.c ****     if(cfg.use_external_vbus == 1)
 115:HALLIB/Src/stm32f7xx_ll_usb.c ****     {
 116:HALLIB/Src/stm32f7xx_ll_usb.c ****       USBx->GUSBCFG |= USB_OTG_GUSBCFG_ULPIEVBUSD;
 117:HALLIB/Src/stm32f7xx_ll_usb.c ****     }
 118:HALLIB/Src/stm32f7xx_ll_usb.c ****     /* Reset after a PHY select  */
 119:HALLIB/Src/stm32f7xx_ll_usb.c ****     USB_CoreReset(USBx);
 120:HALLIB/Src/stm32f7xx_ll_usb.c ****   }
 121:HALLIB/Src/stm32f7xx_ll_usb.c **** #ifdef USB_HS_PHYC
 122:HALLIB/Src/stm32f7xx_ll_usb.c **** 
 123:HALLIB/Src/stm32f7xx_ll_usb.c ****   else if (cfg.phy_itface == USB_OTG_HS_EMBEDDED_PHY)
 124:HALLIB/Src/stm32f7xx_ll_usb.c ****   {
 125:HALLIB/Src/stm32f7xx_ll_usb.c ****     USBx->GCCFG &= ~(USB_OTG_GCCFG_PWRDWN);
 126:HALLIB/Src/stm32f7xx_ll_usb.c **** 
 127:HALLIB/Src/stm32f7xx_ll_usb.c ****     /* Init The UTMI Interface */
 128:HALLIB/Src/stm32f7xx_ll_usb.c ****     USBx->GUSBCFG &= ~(USB_OTG_GUSBCFG_TSDPS | USB_OTG_GUSBCFG_ULPIFSLS | USB_OTG_GUSBCFG_PHYSEL);
 129:HALLIB/Src/stm32f7xx_ll_usb.c **** 
 130:HALLIB/Src/stm32f7xx_ll_usb.c ****     /* Select vbus source */
 131:HALLIB/Src/stm32f7xx_ll_usb.c ****     USBx->GUSBCFG &= ~(USB_OTG_GUSBCFG_ULPIEVBUSD | USB_OTG_GUSBCFG_ULPIEVBUSI);
 132:HALLIB/Src/stm32f7xx_ll_usb.c **** 
 133:HALLIB/Src/stm32f7xx_ll_usb.c ****     /* Select UTMI Interace */
 134:HALLIB/Src/stm32f7xx_ll_usb.c ****     USBx->GUSBCFG &= ~ USB_OTG_GUSBCFG_ULPI_UTMI_SEL;
 135:HALLIB/Src/stm32f7xx_ll_usb.c ****     USBx->GCCFG |= USB_OTG_GCCFG_PHYHSEN;
 136:HALLIB/Src/stm32f7xx_ll_usb.c **** 
 137:HALLIB/Src/stm32f7xx_ll_usb.c ****     /* Enables control of a High Speed USB PHY */
 138:HALLIB/Src/stm32f7xx_ll_usb.c ****     USB_HS_PHYCInit(USBx);
 139:HALLIB/Src/stm32f7xx_ll_usb.c **** 
 140:HALLIB/Src/stm32f7xx_ll_usb.c ****     if(cfg.use_external_vbus == 1)
 141:HALLIB/Src/stm32f7xx_ll_usb.c ****     {
 142:HALLIB/Src/stm32f7xx_ll_usb.c ****       USBx->GUSBCFG |= USB_OTG_GUSBCFG_ULPIEVBUSD;
 143:HALLIB/Src/stm32f7xx_ll_usb.c ****     }
 144:HALLIB/Src/stm32f7xx_ll_usb.c ****     /* Reset after a PHY select  */
 145:HALLIB/Src/stm32f7xx_ll_usb.c ****     USB_CoreReset(USBx);
ARM GAS  /tmp/cckeRSC8.s 			page 4


 146:HALLIB/Src/stm32f7xx_ll_usb.c **** 
 147:HALLIB/Src/stm32f7xx_ll_usb.c ****   }
 148:HALLIB/Src/stm32f7xx_ll_usb.c **** #endif
 149:HALLIB/Src/stm32f7xx_ll_usb.c ****   else /* FS interface (embedded Phy) */
 150:HALLIB/Src/stm32f7xx_ll_usb.c ****   {
 151:HALLIB/Src/stm32f7xx_ll_usb.c ****     /* Select FS Embedded PHY */
 152:HALLIB/Src/stm32f7xx_ll_usb.c ****     USBx->GUSBCFG |= USB_OTG_GUSBCFG_PHYSEL;
 153:HALLIB/Src/stm32f7xx_ll_usb.c **** 
 154:HALLIB/Src/stm32f7xx_ll_usb.c ****     /* Reset after a PHY select and set Host mode */
 155:HALLIB/Src/stm32f7xx_ll_usb.c ****     USB_CoreReset(USBx);
 156:HALLIB/Src/stm32f7xx_ll_usb.c **** 
 157:HALLIB/Src/stm32f7xx_ll_usb.c ****     /* Deactivate the power down*/
 158:HALLIB/Src/stm32f7xx_ll_usb.c ****     USBx->GCCFG = USB_OTG_GCCFG_PWRDWN;
 159:HALLIB/Src/stm32f7xx_ll_usb.c ****   }
 160:HALLIB/Src/stm32f7xx_ll_usb.c **** 
 161:HALLIB/Src/stm32f7xx_ll_usb.c ****   if(cfg.dma_enable == ENABLE)
 162:HALLIB/Src/stm32f7xx_ll_usb.c ****   {
 163:HALLIB/Src/stm32f7xx_ll_usb.c ****     USBx->GAHBCFG |= USB_OTG_GAHBCFG_HBSTLEN_2;
 164:HALLIB/Src/stm32f7xx_ll_usb.c ****     USBx->GAHBCFG |= USB_OTG_GAHBCFG_DMAEN;
 165:HALLIB/Src/stm32f7xx_ll_usb.c ****   }
 166:HALLIB/Src/stm32f7xx_ll_usb.c **** 
 167:HALLIB/Src/stm32f7xx_ll_usb.c ****   return HAL_OK;
 168:HALLIB/Src/stm32f7xx_ll_usb.c **** }
 169:HALLIB/Src/stm32f7xx_ll_usb.c **** 
 170:HALLIB/Src/stm32f7xx_ll_usb.c **** /**
 171:HALLIB/Src/stm32f7xx_ll_usb.c ****   * @brief  USB_EnableGlobalInt
 172:HALLIB/Src/stm32f7xx_ll_usb.c ****   *         Enables the controller's Global Int in the AHB Config reg
 173:HALLIB/Src/stm32f7xx_ll_usb.c ****   * @param  USBx  Selected device
 174:HALLIB/Src/stm32f7xx_ll_usb.c ****   * @retval HAL status
 175:HALLIB/Src/stm32f7xx_ll_usb.c ****   */
 176:HALLIB/Src/stm32f7xx_ll_usb.c **** HAL_StatusTypeDef USB_EnableGlobalInt(USB_OTG_GlobalTypeDef *USBx)
 177:HALLIB/Src/stm32f7xx_ll_usb.c **** {
 178:HALLIB/Src/stm32f7xx_ll_usb.c ****   USBx->GAHBCFG |= USB_OTG_GAHBCFG_GINT;
 179:HALLIB/Src/stm32f7xx_ll_usb.c ****   return HAL_OK;
 180:HALLIB/Src/stm32f7xx_ll_usb.c **** }
 181:HALLIB/Src/stm32f7xx_ll_usb.c **** 
 182:HALLIB/Src/stm32f7xx_ll_usb.c **** 
 183:HALLIB/Src/stm32f7xx_ll_usb.c **** /**
 184:HALLIB/Src/stm32f7xx_ll_usb.c ****   * @brief  USB_DisableGlobalInt
 185:HALLIB/Src/stm32f7xx_ll_usb.c ****   *         Disable the controller's Global Int in the AHB Config reg
 186:HALLIB/Src/stm32f7xx_ll_usb.c ****   * @param  USBx  Selected device
 187:HALLIB/Src/stm32f7xx_ll_usb.c ****   * @retval HAL status
 188:HALLIB/Src/stm32f7xx_ll_usb.c **** */
 189:HALLIB/Src/stm32f7xx_ll_usb.c **** HAL_StatusTypeDef USB_DisableGlobalInt(USB_OTG_GlobalTypeDef *USBx)
 190:HALLIB/Src/stm32f7xx_ll_usb.c **** {
 191:HALLIB/Src/stm32f7xx_ll_usb.c ****   USBx->GAHBCFG &= ~USB_OTG_GAHBCFG_GINT;
 192:HALLIB/Src/stm32f7xx_ll_usb.c ****   return HAL_OK;
 193:HALLIB/Src/stm32f7xx_ll_usb.c **** }
 194:HALLIB/Src/stm32f7xx_ll_usb.c **** 
 195:HALLIB/Src/stm32f7xx_ll_usb.c **** /**
 196:HALLIB/Src/stm32f7xx_ll_usb.c ****   * @brief  USB_SetCurrentMode : Set functional mode
 197:HALLIB/Src/stm32f7xx_ll_usb.c ****   * @param  USBx  Selected device
 198:HALLIB/Src/stm32f7xx_ll_usb.c ****   * @param  mode   current core mode
 199:HALLIB/Src/stm32f7xx_ll_usb.c ****   *          This parameter can be one of these values:
 200:HALLIB/Src/stm32f7xx_ll_usb.c ****   *            @arg USB_OTG_DEVICE_MODE: Peripheral mode
 201:HALLIB/Src/stm32f7xx_ll_usb.c ****   *            @arg USB_OTG_HOST_MODE: Host mode
 202:HALLIB/Src/stm32f7xx_ll_usb.c ****   *            @arg USB_OTG_DRD_MODE: Dual Role Device mode
ARM GAS  /tmp/cckeRSC8.s 			page 5


 203:HALLIB/Src/stm32f7xx_ll_usb.c ****   * @retval HAL status
 204:HALLIB/Src/stm32f7xx_ll_usb.c ****   */
 205:HALLIB/Src/stm32f7xx_ll_usb.c **** HAL_StatusTypeDef USB_SetCurrentMode(USB_OTG_GlobalTypeDef *USBx , USB_OTG_ModeTypeDef mode)
 206:HALLIB/Src/stm32f7xx_ll_usb.c **** {
 207:HALLIB/Src/stm32f7xx_ll_usb.c ****   USBx->GUSBCFG &= ~(USB_OTG_GUSBCFG_FHMOD | USB_OTG_GUSBCFG_FDMOD);
 208:HALLIB/Src/stm32f7xx_ll_usb.c **** 
 209:HALLIB/Src/stm32f7xx_ll_usb.c ****   if ( mode == USB_OTG_HOST_MODE)
 210:HALLIB/Src/stm32f7xx_ll_usb.c ****   {
 211:HALLIB/Src/stm32f7xx_ll_usb.c ****     USBx->GUSBCFG |= USB_OTG_GUSBCFG_FHMOD;
 212:HALLIB/Src/stm32f7xx_ll_usb.c ****   }
 213:HALLIB/Src/stm32f7xx_ll_usb.c ****   else if ( mode == USB_OTG_DEVICE_MODE)
 214:HALLIB/Src/stm32f7xx_ll_usb.c ****   {
 215:HALLIB/Src/stm32f7xx_ll_usb.c ****     USBx->GUSBCFG |= USB_OTG_GUSBCFG_FDMOD;
 216:HALLIB/Src/stm32f7xx_ll_usb.c ****   }
 217:HALLIB/Src/stm32f7xx_ll_usb.c ****   HAL_Delay(50);
 218:HALLIB/Src/stm32f7xx_ll_usb.c **** 
 219:HALLIB/Src/stm32f7xx_ll_usb.c ****   return HAL_OK;
 220:HALLIB/Src/stm32f7xx_ll_usb.c **** }
 221:HALLIB/Src/stm32f7xx_ll_usb.c **** 
 222:HALLIB/Src/stm32f7xx_ll_usb.c **** /**
 223:HALLIB/Src/stm32f7xx_ll_usb.c ****   * @brief  USB_DevInit : Initializes the USB_OTG controller registers
 224:HALLIB/Src/stm32f7xx_ll_usb.c ****   *         for device mode
 225:HALLIB/Src/stm32f7xx_ll_usb.c ****   * @param  USBx  Selected device
 226:HALLIB/Src/stm32f7xx_ll_usb.c ****   * @param  cfg   pointer to a USB_OTG_CfgTypeDef structure that contains
 227:HALLIB/Src/stm32f7xx_ll_usb.c ****   *         the configuration information for the specified USBx peripheral.
 228:HALLIB/Src/stm32f7xx_ll_usb.c ****   * @retval HAL status
 229:HALLIB/Src/stm32f7xx_ll_usb.c ****   */
 230:HALLIB/Src/stm32f7xx_ll_usb.c **** HAL_StatusTypeDef USB_DevInit (USB_OTG_GlobalTypeDef *USBx, USB_OTG_CfgTypeDef cfg)
 231:HALLIB/Src/stm32f7xx_ll_usb.c **** {
 232:HALLIB/Src/stm32f7xx_ll_usb.c ****   uint32_t i = 0;
 233:HALLIB/Src/stm32f7xx_ll_usb.c **** 
 234:HALLIB/Src/stm32f7xx_ll_usb.c ****   /*Activate VBUS Sensing B */
 235:HALLIB/Src/stm32f7xx_ll_usb.c ****   USBx->GCCFG |= USB_OTG_GCCFG_VBDEN;
 236:HALLIB/Src/stm32f7xx_ll_usb.c **** 
 237:HALLIB/Src/stm32f7xx_ll_usb.c ****   if (cfg.vbus_sensing_enable == 0)
 238:HALLIB/Src/stm32f7xx_ll_usb.c ****   {
 239:HALLIB/Src/stm32f7xx_ll_usb.c ****     /* Deactivate VBUS Sensing B */
 240:HALLIB/Src/stm32f7xx_ll_usb.c ****     USBx->GCCFG &= ~ USB_OTG_GCCFG_VBDEN;
 241:HALLIB/Src/stm32f7xx_ll_usb.c **** 
 242:HALLIB/Src/stm32f7xx_ll_usb.c ****     /* B-peripheral session valid override enable*/
 243:HALLIB/Src/stm32f7xx_ll_usb.c ****     USBx->GOTGCTL |= USB_OTG_GOTGCTL_BVALOEN;
 244:HALLIB/Src/stm32f7xx_ll_usb.c ****     USBx->GOTGCTL |= USB_OTG_GOTGCTL_BVALOVAL;
 245:HALLIB/Src/stm32f7xx_ll_usb.c ****   }
 246:HALLIB/Src/stm32f7xx_ll_usb.c **** 
 247:HALLIB/Src/stm32f7xx_ll_usb.c ****   /* Restart the Phy Clock */
 248:HALLIB/Src/stm32f7xx_ll_usb.c ****   USBx_PCGCCTL = 0;
 249:HALLIB/Src/stm32f7xx_ll_usb.c **** 
 250:HALLIB/Src/stm32f7xx_ll_usb.c ****   /* Device mode configuration */
 251:HALLIB/Src/stm32f7xx_ll_usb.c ****   USBx_DEVICE->DCFG |= DCFG_FRAME_INTERVAL_80;
 252:HALLIB/Src/stm32f7xx_ll_usb.c **** 
 253:HALLIB/Src/stm32f7xx_ll_usb.c ****   if(cfg.phy_itface  == USB_OTG_ULPI_PHY)
 254:HALLIB/Src/stm32f7xx_ll_usb.c ****   {
 255:HALLIB/Src/stm32f7xx_ll_usb.c ****     if(cfg.speed == USB_OTG_SPEED_HIGH)
 256:HALLIB/Src/stm32f7xx_ll_usb.c ****     {
 257:HALLIB/Src/stm32f7xx_ll_usb.c ****       /* Set High speed phy */
 258:HALLIB/Src/stm32f7xx_ll_usb.c ****       USB_SetDevSpeed (USBx , USB_OTG_SPEED_HIGH);
 259:HALLIB/Src/stm32f7xx_ll_usb.c ****     }
ARM GAS  /tmp/cckeRSC8.s 			page 6


 260:HALLIB/Src/stm32f7xx_ll_usb.c ****     else
 261:HALLIB/Src/stm32f7xx_ll_usb.c ****     {
 262:HALLIB/Src/stm32f7xx_ll_usb.c ****       /* set High speed phy in Full speed mode */
 263:HALLIB/Src/stm32f7xx_ll_usb.c ****       USB_SetDevSpeed (USBx , USB_OTG_SPEED_HIGH_IN_FULL);
 264:HALLIB/Src/stm32f7xx_ll_usb.c ****     }
 265:HALLIB/Src/stm32f7xx_ll_usb.c ****   }
 266:HALLIB/Src/stm32f7xx_ll_usb.c **** 
 267:HALLIB/Src/stm32f7xx_ll_usb.c ****   else if(cfg.phy_itface  == USB_OTG_HS_EMBEDDED_PHY)
 268:HALLIB/Src/stm32f7xx_ll_usb.c ****   {
 269:HALLIB/Src/stm32f7xx_ll_usb.c ****     if(cfg.speed == USB_OTG_SPEED_HIGH)
 270:HALLIB/Src/stm32f7xx_ll_usb.c ****     {
 271:HALLIB/Src/stm32f7xx_ll_usb.c ****       /* Set High speed phy */
 272:HALLIB/Src/stm32f7xx_ll_usb.c ****       USB_SetDevSpeed (USBx , USB_OTG_SPEED_HIGH);
 273:HALLIB/Src/stm32f7xx_ll_usb.c ****     }
 274:HALLIB/Src/stm32f7xx_ll_usb.c ****     else
 275:HALLIB/Src/stm32f7xx_ll_usb.c ****     {
 276:HALLIB/Src/stm32f7xx_ll_usb.c ****       /* set High speed phy in Full speed mode */
 277:HALLIB/Src/stm32f7xx_ll_usb.c ****       USB_SetDevSpeed (USBx , USB_OTG_SPEED_HIGH_IN_FULL);
 278:HALLIB/Src/stm32f7xx_ll_usb.c ****     }
 279:HALLIB/Src/stm32f7xx_ll_usb.c ****   }
 280:HALLIB/Src/stm32f7xx_ll_usb.c **** 
 281:HALLIB/Src/stm32f7xx_ll_usb.c ****   else
 282:HALLIB/Src/stm32f7xx_ll_usb.c ****   {
 283:HALLIB/Src/stm32f7xx_ll_usb.c ****     /* Set Full speed phy */
 284:HALLIB/Src/stm32f7xx_ll_usb.c ****     USB_SetDevSpeed (USBx , USB_OTG_SPEED_FULL);
 285:HALLIB/Src/stm32f7xx_ll_usb.c ****   }
 286:HALLIB/Src/stm32f7xx_ll_usb.c **** 
 287:HALLIB/Src/stm32f7xx_ll_usb.c ****   /* Flush the FIFOs */
 288:HALLIB/Src/stm32f7xx_ll_usb.c ****   USB_FlushTxFifo(USBx , 0x10); /* all Tx FIFOs */
 289:HALLIB/Src/stm32f7xx_ll_usb.c ****   USB_FlushRxFifo(USBx);
 290:HALLIB/Src/stm32f7xx_ll_usb.c **** 
 291:HALLIB/Src/stm32f7xx_ll_usb.c ****   /* Clear all pending Device Interrupts */
 292:HALLIB/Src/stm32f7xx_ll_usb.c ****   USBx_DEVICE->DIEPMSK = 0;
 293:HALLIB/Src/stm32f7xx_ll_usb.c ****   USBx_DEVICE->DOEPMSK = 0;
 294:HALLIB/Src/stm32f7xx_ll_usb.c ****   USBx_DEVICE->DAINT = 0xFFFFFFFF;
 295:HALLIB/Src/stm32f7xx_ll_usb.c ****   USBx_DEVICE->DAINTMSK = 0;
 296:HALLIB/Src/stm32f7xx_ll_usb.c **** 
 297:HALLIB/Src/stm32f7xx_ll_usb.c ****   for (i = 0; i < cfg.dev_endpoints; i++)
 298:HALLIB/Src/stm32f7xx_ll_usb.c ****   {
 299:HALLIB/Src/stm32f7xx_ll_usb.c ****     if ((USBx_INEP(i)->DIEPCTL & USB_OTG_DIEPCTL_EPENA) == USB_OTG_DIEPCTL_EPENA)
 300:HALLIB/Src/stm32f7xx_ll_usb.c ****     {
 301:HALLIB/Src/stm32f7xx_ll_usb.c ****       USBx_INEP(i)->DIEPCTL = (USB_OTG_DIEPCTL_EPDIS | USB_OTG_DIEPCTL_SNAK);
 302:HALLIB/Src/stm32f7xx_ll_usb.c ****     }
 303:HALLIB/Src/stm32f7xx_ll_usb.c ****     else
 304:HALLIB/Src/stm32f7xx_ll_usb.c ****     {
 305:HALLIB/Src/stm32f7xx_ll_usb.c ****       USBx_INEP(i)->DIEPCTL = 0;
 306:HALLIB/Src/stm32f7xx_ll_usb.c ****     }
 307:HALLIB/Src/stm32f7xx_ll_usb.c **** 
 308:HALLIB/Src/stm32f7xx_ll_usb.c ****     USBx_INEP(i)->DIEPTSIZ = 0;
 309:HALLIB/Src/stm32f7xx_ll_usb.c ****     USBx_INEP(i)->DIEPINT  = 0xFF;
 310:HALLIB/Src/stm32f7xx_ll_usb.c ****   }
 311:HALLIB/Src/stm32f7xx_ll_usb.c **** 
 312:HALLIB/Src/stm32f7xx_ll_usb.c ****   for (i = 0; i < cfg.dev_endpoints; i++)
 313:HALLIB/Src/stm32f7xx_ll_usb.c ****   {
 314:HALLIB/Src/stm32f7xx_ll_usb.c ****     if ((USBx_OUTEP(i)->DOEPCTL & USB_OTG_DOEPCTL_EPENA) == USB_OTG_DOEPCTL_EPENA)
 315:HALLIB/Src/stm32f7xx_ll_usb.c ****     {
 316:HALLIB/Src/stm32f7xx_ll_usb.c ****       USBx_OUTEP(i)->DOEPCTL = (USB_OTG_DOEPCTL_EPDIS | USB_OTG_DOEPCTL_SNAK);
ARM GAS  /tmp/cckeRSC8.s 			page 7


 317:HALLIB/Src/stm32f7xx_ll_usb.c ****     }
 318:HALLIB/Src/stm32f7xx_ll_usb.c ****     else
 319:HALLIB/Src/stm32f7xx_ll_usb.c ****     {
 320:HALLIB/Src/stm32f7xx_ll_usb.c ****       USBx_OUTEP(i)->DOEPCTL = 0;
 321:HALLIB/Src/stm32f7xx_ll_usb.c ****     }
 322:HALLIB/Src/stm32f7xx_ll_usb.c **** 
 323:HALLIB/Src/stm32f7xx_ll_usb.c ****     USBx_OUTEP(i)->DOEPTSIZ = 0;
 324:HALLIB/Src/stm32f7xx_ll_usb.c ****     USBx_OUTEP(i)->DOEPINT  = 0xFF;
 325:HALLIB/Src/stm32f7xx_ll_usb.c ****   }
 326:HALLIB/Src/stm32f7xx_ll_usb.c **** 
 327:HALLIB/Src/stm32f7xx_ll_usb.c ****   USBx_DEVICE->DIEPMSK &= ~(USB_OTG_DIEPMSK_TXFURM);
 328:HALLIB/Src/stm32f7xx_ll_usb.c **** 
 329:HALLIB/Src/stm32f7xx_ll_usb.c ****   if (cfg.dma_enable == 1)
 330:HALLIB/Src/stm32f7xx_ll_usb.c ****   {
 331:HALLIB/Src/stm32f7xx_ll_usb.c ****     /*Set threshold parameters */
 332:HALLIB/Src/stm32f7xx_ll_usb.c ****     USBx_DEVICE->DTHRCTL = (USB_OTG_DTHRCTL_TXTHRLEN_6 | USB_OTG_DTHRCTL_RXTHRLEN_6);
 333:HALLIB/Src/stm32f7xx_ll_usb.c ****     USBx_DEVICE->DTHRCTL |= (USB_OTG_DTHRCTL_RXTHREN | USB_OTG_DTHRCTL_ISOTHREN | USB_OTG_DTHRCTL_N
 334:HALLIB/Src/stm32f7xx_ll_usb.c **** 
 335:HALLIB/Src/stm32f7xx_ll_usb.c ****     i= USBx_DEVICE->DTHRCTL;
 336:HALLIB/Src/stm32f7xx_ll_usb.c ****   }
 337:HALLIB/Src/stm32f7xx_ll_usb.c **** 
 338:HALLIB/Src/stm32f7xx_ll_usb.c ****   /* Disable all interrupts. */
 339:HALLIB/Src/stm32f7xx_ll_usb.c ****   USBx->GINTMSK = 0;
 340:HALLIB/Src/stm32f7xx_ll_usb.c **** 
 341:HALLIB/Src/stm32f7xx_ll_usb.c ****   /* Clear any pending interrupts */
 342:HALLIB/Src/stm32f7xx_ll_usb.c ****   USBx->GINTSTS = 0xBFFFFFFF;
 343:HALLIB/Src/stm32f7xx_ll_usb.c **** 
 344:HALLIB/Src/stm32f7xx_ll_usb.c ****   /* Enable the common interrupts */
 345:HALLIB/Src/stm32f7xx_ll_usb.c ****   if (cfg.dma_enable == DISABLE)
 346:HALLIB/Src/stm32f7xx_ll_usb.c ****   {
 347:HALLIB/Src/stm32f7xx_ll_usb.c ****     USBx->GINTMSK |= USB_OTG_GINTMSK_RXFLVLM;
 348:HALLIB/Src/stm32f7xx_ll_usb.c ****   }
 349:HALLIB/Src/stm32f7xx_ll_usb.c **** 
 350:HALLIB/Src/stm32f7xx_ll_usb.c ****   /* Enable interrupts matching to the Device mode ONLY */
 351:HALLIB/Src/stm32f7xx_ll_usb.c ****   USBx->GINTMSK |= (USB_OTG_GINTMSK_USBSUSPM | USB_OTG_GINTMSK_USBRST |\
 352:HALLIB/Src/stm32f7xx_ll_usb.c ****                     USB_OTG_GINTMSK_ENUMDNEM | USB_OTG_GINTMSK_IEPINT |\
 353:HALLIB/Src/stm32f7xx_ll_usb.c ****                     USB_OTG_GINTMSK_OEPINT   | USB_OTG_GINTMSK_IISOIXFRM|\
 354:HALLIB/Src/stm32f7xx_ll_usb.c ****                     USB_OTG_GINTMSK_PXFRM_IISOOXFRM | USB_OTG_GINTMSK_WUIM);
 355:HALLIB/Src/stm32f7xx_ll_usb.c **** 
 356:HALLIB/Src/stm32f7xx_ll_usb.c ****   if(cfg.Sof_enable)
 357:HALLIB/Src/stm32f7xx_ll_usb.c ****   {
 358:HALLIB/Src/stm32f7xx_ll_usb.c ****     USBx->GINTMSK |= USB_OTG_GINTMSK_SOFM;
 359:HALLIB/Src/stm32f7xx_ll_usb.c ****   }
 360:HALLIB/Src/stm32f7xx_ll_usb.c **** 
 361:HALLIB/Src/stm32f7xx_ll_usb.c ****   if (cfg.vbus_sensing_enable == ENABLE)
 362:HALLIB/Src/stm32f7xx_ll_usb.c ****   {
 363:HALLIB/Src/stm32f7xx_ll_usb.c ****     USBx->GINTMSK |= (USB_OTG_GINTMSK_SRQIM | USB_OTG_GINTMSK_OTGINT);
 364:HALLIB/Src/stm32f7xx_ll_usb.c ****   }
 365:HALLIB/Src/stm32f7xx_ll_usb.c **** 
 366:HALLIB/Src/stm32f7xx_ll_usb.c ****   return HAL_OK;
 367:HALLIB/Src/stm32f7xx_ll_usb.c **** }
 368:HALLIB/Src/stm32f7xx_ll_usb.c **** 
 369:HALLIB/Src/stm32f7xx_ll_usb.c **** 
 370:HALLIB/Src/stm32f7xx_ll_usb.c **** /**
 371:HALLIB/Src/stm32f7xx_ll_usb.c ****   * @brief  USB_OTG_FlushTxFifo : Flush a Tx FIFO
 372:HALLIB/Src/stm32f7xx_ll_usb.c ****   * @param  USBx  Selected device
 373:HALLIB/Src/stm32f7xx_ll_usb.c ****   * @param  num  FIFO number
ARM GAS  /tmp/cckeRSC8.s 			page 8


 374:HALLIB/Src/stm32f7xx_ll_usb.c ****   *         This parameter can be a value from 1 to 15
 375:HALLIB/Src/stm32f7xx_ll_usb.c ****             15 means Flush all Tx FIFOs
 376:HALLIB/Src/stm32f7xx_ll_usb.c ****   * @retval HAL status
 377:HALLIB/Src/stm32f7xx_ll_usb.c ****   */
 378:HALLIB/Src/stm32f7xx_ll_usb.c **** HAL_StatusTypeDef USB_FlushTxFifo (USB_OTG_GlobalTypeDef *USBx, uint32_t num )
 379:HALLIB/Src/stm32f7xx_ll_usb.c **** {
 380:HALLIB/Src/stm32f7xx_ll_usb.c ****   uint32_t count = 0;
 381:HALLIB/Src/stm32f7xx_ll_usb.c **** 
 382:HALLIB/Src/stm32f7xx_ll_usb.c ****   USBx->GRSTCTL = ( USB_OTG_GRSTCTL_TXFFLSH |(uint32_t)( num << 6));
 383:HALLIB/Src/stm32f7xx_ll_usb.c **** 
 384:HALLIB/Src/stm32f7xx_ll_usb.c ****   do
 385:HALLIB/Src/stm32f7xx_ll_usb.c ****   {
 386:HALLIB/Src/stm32f7xx_ll_usb.c ****     if (++count > 200000)
 387:HALLIB/Src/stm32f7xx_ll_usb.c ****     {
 388:HALLIB/Src/stm32f7xx_ll_usb.c ****       return HAL_TIMEOUT;
 389:HALLIB/Src/stm32f7xx_ll_usb.c ****     }
 390:HALLIB/Src/stm32f7xx_ll_usb.c ****   }
 391:HALLIB/Src/stm32f7xx_ll_usb.c ****   while ((USBx->GRSTCTL & USB_OTG_GRSTCTL_TXFFLSH) == USB_OTG_GRSTCTL_TXFFLSH);
 392:HALLIB/Src/stm32f7xx_ll_usb.c **** 
 393:HALLIB/Src/stm32f7xx_ll_usb.c ****   return HAL_OK;
 394:HALLIB/Src/stm32f7xx_ll_usb.c **** }
 395:HALLIB/Src/stm32f7xx_ll_usb.c **** 
 396:HALLIB/Src/stm32f7xx_ll_usb.c **** 
 397:HALLIB/Src/stm32f7xx_ll_usb.c **** /**
 398:HALLIB/Src/stm32f7xx_ll_usb.c ****   * @brief  USB_FlushRxFifo : Flush Rx FIFO
 399:HALLIB/Src/stm32f7xx_ll_usb.c ****   * @param  USBx  Selected device
 400:HALLIB/Src/stm32f7xx_ll_usb.c ****   * @retval HAL status
 401:HALLIB/Src/stm32f7xx_ll_usb.c ****   */
 402:HALLIB/Src/stm32f7xx_ll_usb.c **** HAL_StatusTypeDef USB_FlushRxFifo(USB_OTG_GlobalTypeDef *USBx)
 403:HALLIB/Src/stm32f7xx_ll_usb.c **** {
 404:HALLIB/Src/stm32f7xx_ll_usb.c ****   uint32_t count = 0;
 405:HALLIB/Src/stm32f7xx_ll_usb.c **** 
 406:HALLIB/Src/stm32f7xx_ll_usb.c ****   USBx->GRSTCTL = USB_OTG_GRSTCTL_RXFFLSH;
 407:HALLIB/Src/stm32f7xx_ll_usb.c **** 
 408:HALLIB/Src/stm32f7xx_ll_usb.c ****   do
 409:HALLIB/Src/stm32f7xx_ll_usb.c ****   {
 410:HALLIB/Src/stm32f7xx_ll_usb.c ****     if (++count > 200000)
 411:HALLIB/Src/stm32f7xx_ll_usb.c ****     {
 412:HALLIB/Src/stm32f7xx_ll_usb.c ****       return HAL_TIMEOUT;
 413:HALLIB/Src/stm32f7xx_ll_usb.c ****     }
 414:HALLIB/Src/stm32f7xx_ll_usb.c ****   }
 415:HALLIB/Src/stm32f7xx_ll_usb.c ****   while ((USBx->GRSTCTL & USB_OTG_GRSTCTL_RXFFLSH) == USB_OTG_GRSTCTL_RXFFLSH);
 416:HALLIB/Src/stm32f7xx_ll_usb.c **** 
 417:HALLIB/Src/stm32f7xx_ll_usb.c ****   return HAL_OK;
 418:HALLIB/Src/stm32f7xx_ll_usb.c **** }
 419:HALLIB/Src/stm32f7xx_ll_usb.c **** 
 420:HALLIB/Src/stm32f7xx_ll_usb.c **** /**
 421:HALLIB/Src/stm32f7xx_ll_usb.c ****   * @brief  USB_SetDevSpeed :Initializes the DevSpd field of DCFG register
 422:HALLIB/Src/stm32f7xx_ll_usb.c ****   *         depending the PHY type and the enumeration speed of the device.
 423:HALLIB/Src/stm32f7xx_ll_usb.c ****   * @param  USBx  Selected device
 424:HALLIB/Src/stm32f7xx_ll_usb.c ****   * @param  speed  device speed
 425:HALLIB/Src/stm32f7xx_ll_usb.c ****   *          This parameter can be one of these values:
 426:HALLIB/Src/stm32f7xx_ll_usb.c ****   *            @arg USB_OTG_SPEED_HIGH: High speed mode
 427:HALLIB/Src/stm32f7xx_ll_usb.c ****   *            @arg USB_OTG_SPEED_HIGH_IN_FULL: High speed core in Full Speed mode
 428:HALLIB/Src/stm32f7xx_ll_usb.c ****   *            @arg USB_OTG_SPEED_FULL: Full speed mode
 429:HALLIB/Src/stm32f7xx_ll_usb.c ****   *            @arg USB_OTG_SPEED_LOW: Low speed mode
 430:HALLIB/Src/stm32f7xx_ll_usb.c ****   * @retval  Hal status
ARM GAS  /tmp/cckeRSC8.s 			page 9


 431:HALLIB/Src/stm32f7xx_ll_usb.c ****   */
 432:HALLIB/Src/stm32f7xx_ll_usb.c **** HAL_StatusTypeDef USB_SetDevSpeed(USB_OTG_GlobalTypeDef *USBx , uint8_t speed)
 433:HALLIB/Src/stm32f7xx_ll_usb.c **** {
 434:HALLIB/Src/stm32f7xx_ll_usb.c ****   USBx_DEVICE->DCFG |= speed;
 435:HALLIB/Src/stm32f7xx_ll_usb.c ****   return HAL_OK;
 436:HALLIB/Src/stm32f7xx_ll_usb.c **** }
 437:HALLIB/Src/stm32f7xx_ll_usb.c **** 
 438:HALLIB/Src/stm32f7xx_ll_usb.c **** /**
 439:HALLIB/Src/stm32f7xx_ll_usb.c ****   * @brief  USB_GetDevSpeed :Return the  Dev Speed
 440:HALLIB/Src/stm32f7xx_ll_usb.c ****   * @param  USBx  Selected device
 441:HALLIB/Src/stm32f7xx_ll_usb.c ****   * @retval speed : device speed
 442:HALLIB/Src/stm32f7xx_ll_usb.c ****   *          This parameter can be one of these values:
 443:HALLIB/Src/stm32f7xx_ll_usb.c ****   *            @arg USB_OTG_SPEED_HIGH: High speed mode
 444:HALLIB/Src/stm32f7xx_ll_usb.c ****   *            @arg USB_OTG_SPEED_FULL: Full speed mode
 445:HALLIB/Src/stm32f7xx_ll_usb.c ****   *            @arg USB_OTG_SPEED_LOW: Low speed mode
 446:HALLIB/Src/stm32f7xx_ll_usb.c ****   */
 447:HALLIB/Src/stm32f7xx_ll_usb.c **** uint8_t USB_GetDevSpeed(USB_OTG_GlobalTypeDef *USBx)
 448:HALLIB/Src/stm32f7xx_ll_usb.c **** {
 449:HALLIB/Src/stm32f7xx_ll_usb.c ****   uint8_t speed = 0;
 450:HALLIB/Src/stm32f7xx_ll_usb.c **** 
 451:HALLIB/Src/stm32f7xx_ll_usb.c ****   if((USBx_DEVICE->DSTS & USB_OTG_DSTS_ENUMSPD) == DSTS_ENUMSPD_HS_PHY_30MHZ_OR_60MHZ)
 452:HALLIB/Src/stm32f7xx_ll_usb.c ****   {
 453:HALLIB/Src/stm32f7xx_ll_usb.c ****     speed = USB_OTG_SPEED_HIGH;
 454:HALLIB/Src/stm32f7xx_ll_usb.c ****   }
 455:HALLIB/Src/stm32f7xx_ll_usb.c ****   else if (((USBx_DEVICE->DSTS & USB_OTG_DSTS_ENUMSPD) == DSTS_ENUMSPD_FS_PHY_30MHZ_OR_60MHZ)||
 456:HALLIB/Src/stm32f7xx_ll_usb.c ****            ((USBx_DEVICE->DSTS & USB_OTG_DSTS_ENUMSPD) == DSTS_ENUMSPD_FS_PHY_48MHZ))
 457:HALLIB/Src/stm32f7xx_ll_usb.c ****   {
 458:HALLIB/Src/stm32f7xx_ll_usb.c ****     speed = USB_OTG_SPEED_FULL;
 459:HALLIB/Src/stm32f7xx_ll_usb.c ****   }
 460:HALLIB/Src/stm32f7xx_ll_usb.c ****   else if((USBx_DEVICE->DSTS & USB_OTG_DSTS_ENUMSPD) == DSTS_ENUMSPD_LS_PHY_6MHZ)
 461:HALLIB/Src/stm32f7xx_ll_usb.c ****   {
 462:HALLIB/Src/stm32f7xx_ll_usb.c ****     speed = USB_OTG_SPEED_LOW;
 463:HALLIB/Src/stm32f7xx_ll_usb.c ****   }
 464:HALLIB/Src/stm32f7xx_ll_usb.c **** 
 465:HALLIB/Src/stm32f7xx_ll_usb.c ****   return speed;
 466:HALLIB/Src/stm32f7xx_ll_usb.c **** }
 467:HALLIB/Src/stm32f7xx_ll_usb.c **** 
 468:HALLIB/Src/stm32f7xx_ll_usb.c **** /**
 469:HALLIB/Src/stm32f7xx_ll_usb.c ****   * @brief  Activate and configure an endpoint
 470:HALLIB/Src/stm32f7xx_ll_usb.c ****   * @param  USBx  Selected device
 471:HALLIB/Src/stm32f7xx_ll_usb.c ****   * @param  ep pointer to endpoint structure
 472:HALLIB/Src/stm32f7xx_ll_usb.c ****   * @retval HAL status
 473:HALLIB/Src/stm32f7xx_ll_usb.c ****   */
 474:HALLIB/Src/stm32f7xx_ll_usb.c **** HAL_StatusTypeDef USB_ActivateEndpoint(USB_OTG_GlobalTypeDef *USBx, USB_OTG_EPTypeDef *ep)
 475:HALLIB/Src/stm32f7xx_ll_usb.c **** {
 476:HALLIB/Src/stm32f7xx_ll_usb.c ****   if (ep->is_in == 1)
 477:HALLIB/Src/stm32f7xx_ll_usb.c ****   {
 478:HALLIB/Src/stm32f7xx_ll_usb.c ****    USBx_DEVICE->DAINTMSK |= USB_OTG_DAINTMSK_IEPM & ((1 << (ep->num)));
 479:HALLIB/Src/stm32f7xx_ll_usb.c **** 
 480:HALLIB/Src/stm32f7xx_ll_usb.c ****     if (((USBx_INEP(ep->num)->DIEPCTL) & USB_OTG_DIEPCTL_USBAEP) == 0)
 481:HALLIB/Src/stm32f7xx_ll_usb.c ****     {
 482:HALLIB/Src/stm32f7xx_ll_usb.c ****       USBx_INEP(ep->num)->DIEPCTL |= ((ep->maxpacket & USB_OTG_DIEPCTL_MPSIZ ) | (ep->type << 18 ) 
 483:HALLIB/Src/stm32f7xx_ll_usb.c ****         ((ep->num) << 22 ) | (USB_OTG_DIEPCTL_SD0PID_SEVNFRM) | (USB_OTG_DIEPCTL_USBAEP));
 484:HALLIB/Src/stm32f7xx_ll_usb.c ****     }
 485:HALLIB/Src/stm32f7xx_ll_usb.c **** 
 486:HALLIB/Src/stm32f7xx_ll_usb.c ****   }
 487:HALLIB/Src/stm32f7xx_ll_usb.c ****   else
ARM GAS  /tmp/cckeRSC8.s 			page 10


 488:HALLIB/Src/stm32f7xx_ll_usb.c ****   {
 489:HALLIB/Src/stm32f7xx_ll_usb.c ****      USBx_DEVICE->DAINTMSK |= USB_OTG_DAINTMSK_OEPM & ((1 << (ep->num)) << 16);
 490:HALLIB/Src/stm32f7xx_ll_usb.c **** 
 491:HALLIB/Src/stm32f7xx_ll_usb.c ****     if (((USBx_OUTEP(ep->num)->DOEPCTL) & USB_OTG_DOEPCTL_USBAEP) == 0)
 492:HALLIB/Src/stm32f7xx_ll_usb.c ****     {
 493:HALLIB/Src/stm32f7xx_ll_usb.c ****       USBx_OUTEP(ep->num)->DOEPCTL |= ((ep->maxpacket & USB_OTG_DOEPCTL_MPSIZ ) | (ep->type << 18 )
 494:HALLIB/Src/stm32f7xx_ll_usb.c ****        (USB_OTG_DIEPCTL_SD0PID_SEVNFRM)| (USB_OTG_DOEPCTL_USBAEP));
 495:HALLIB/Src/stm32f7xx_ll_usb.c ****     }
 496:HALLIB/Src/stm32f7xx_ll_usb.c ****   }
 497:HALLIB/Src/stm32f7xx_ll_usb.c ****   return HAL_OK;
 498:HALLIB/Src/stm32f7xx_ll_usb.c **** }
 499:HALLIB/Src/stm32f7xx_ll_usb.c **** /**
 500:HALLIB/Src/stm32f7xx_ll_usb.c ****   * @brief  Activate and configure a dedicated endpoint
 501:HALLIB/Src/stm32f7xx_ll_usb.c ****   * @param  USBx  Selected device
 502:HALLIB/Src/stm32f7xx_ll_usb.c ****   * @param  ep pointer to endpoint structure
 503:HALLIB/Src/stm32f7xx_ll_usb.c ****   * @retval HAL status
 504:HALLIB/Src/stm32f7xx_ll_usb.c ****   */
 505:HALLIB/Src/stm32f7xx_ll_usb.c **** HAL_StatusTypeDef USB_ActivateDedicatedEndpoint(USB_OTG_GlobalTypeDef *USBx, USB_OTG_EPTypeDef *ep)
 506:HALLIB/Src/stm32f7xx_ll_usb.c **** {
 507:HALLIB/Src/stm32f7xx_ll_usb.c ****   static __IO uint32_t debug = 0;
 508:HALLIB/Src/stm32f7xx_ll_usb.c **** 
 509:HALLIB/Src/stm32f7xx_ll_usb.c ****   /* Read DEPCTLn register */
 510:HALLIB/Src/stm32f7xx_ll_usb.c ****   if (ep->is_in == 1)
 511:HALLIB/Src/stm32f7xx_ll_usb.c ****   {
 512:HALLIB/Src/stm32f7xx_ll_usb.c ****     if (((USBx_INEP(ep->num)->DIEPCTL) & USB_OTG_DIEPCTL_USBAEP) == 0)
 513:HALLIB/Src/stm32f7xx_ll_usb.c ****     {
 514:HALLIB/Src/stm32f7xx_ll_usb.c ****       USBx_INEP(ep->num)->DIEPCTL |= ((ep->maxpacket & USB_OTG_DIEPCTL_MPSIZ ) | (ep->type << 18 ) 
 515:HALLIB/Src/stm32f7xx_ll_usb.c ****         ((ep->num) << 22 ) | (USB_OTG_DIEPCTL_SD0PID_SEVNFRM) | (USB_OTG_DIEPCTL_USBAEP));
 516:HALLIB/Src/stm32f7xx_ll_usb.c ****     }
 517:HALLIB/Src/stm32f7xx_ll_usb.c **** 
 518:HALLIB/Src/stm32f7xx_ll_usb.c **** 
 519:HALLIB/Src/stm32f7xx_ll_usb.c ****     debug  |= ((ep->maxpacket & USB_OTG_DIEPCTL_MPSIZ ) | (ep->type << 18 ) |\
 520:HALLIB/Src/stm32f7xx_ll_usb.c ****         ((ep->num) << 22 ) | (USB_OTG_DIEPCTL_SD0PID_SEVNFRM) | (USB_OTG_DIEPCTL_USBAEP));
 521:HALLIB/Src/stm32f7xx_ll_usb.c **** 
 522:HALLIB/Src/stm32f7xx_ll_usb.c ****    USBx_DEVICE->DEACHMSK |= USB_OTG_DAINTMSK_IEPM & ((1 << (ep->num)));
 523:HALLIB/Src/stm32f7xx_ll_usb.c ****   }
 524:HALLIB/Src/stm32f7xx_ll_usb.c ****   else
 525:HALLIB/Src/stm32f7xx_ll_usb.c ****   {
 526:HALLIB/Src/stm32f7xx_ll_usb.c ****     if (((USBx_OUTEP(ep->num)->DOEPCTL) & USB_OTG_DOEPCTL_USBAEP) == 0)
 527:HALLIB/Src/stm32f7xx_ll_usb.c ****     {
 528:HALLIB/Src/stm32f7xx_ll_usb.c ****       USBx_OUTEP(ep->num)->DOEPCTL |= ((ep->maxpacket & USB_OTG_DOEPCTL_MPSIZ ) | (ep->type << 18 )
 529:HALLIB/Src/stm32f7xx_ll_usb.c ****         ((ep->num) << 22 ) | (USB_OTG_DOEPCTL_USBAEP));
 530:HALLIB/Src/stm32f7xx_ll_usb.c **** 
 531:HALLIB/Src/stm32f7xx_ll_usb.c ****       debug = (uint32_t)(((uint32_t )USBx) + USB_OTG_OUT_ENDPOINT_BASE + (0)*USB_OTG_EP_REG_SIZE);
 532:HALLIB/Src/stm32f7xx_ll_usb.c ****       debug = (uint32_t )&USBx_OUTEP(ep->num)->DOEPCTL;
 533:HALLIB/Src/stm32f7xx_ll_usb.c ****       debug |= ((ep->maxpacket & USB_OTG_DOEPCTL_MPSIZ ) | (ep->type << 18 ) |\
 534:HALLIB/Src/stm32f7xx_ll_usb.c ****         ((ep->num) << 22 ) | (USB_OTG_DOEPCTL_USBAEP));
 535:HALLIB/Src/stm32f7xx_ll_usb.c ****     }
 536:HALLIB/Src/stm32f7xx_ll_usb.c **** 
 537:HALLIB/Src/stm32f7xx_ll_usb.c ****      USBx_DEVICE->DEACHMSK |= USB_OTG_DAINTMSK_OEPM & ((1 << (ep->num)) << 16);
 538:HALLIB/Src/stm32f7xx_ll_usb.c ****   }
 539:HALLIB/Src/stm32f7xx_ll_usb.c **** 
 540:HALLIB/Src/stm32f7xx_ll_usb.c ****   return HAL_OK;
 541:HALLIB/Src/stm32f7xx_ll_usb.c **** }
 542:HALLIB/Src/stm32f7xx_ll_usb.c **** /**
 543:HALLIB/Src/stm32f7xx_ll_usb.c ****   * @brief  De-activate and de-initialize an endpoint
 544:HALLIB/Src/stm32f7xx_ll_usb.c ****   * @param  USBx  Selected device
ARM GAS  /tmp/cckeRSC8.s 			page 11


 545:HALLIB/Src/stm32f7xx_ll_usb.c ****   * @param  ep pointer to endpoint structure
 546:HALLIB/Src/stm32f7xx_ll_usb.c ****   * @retval HAL status
 547:HALLIB/Src/stm32f7xx_ll_usb.c ****   */
 548:HALLIB/Src/stm32f7xx_ll_usb.c **** HAL_StatusTypeDef USB_DeactivateEndpoint(USB_OTG_GlobalTypeDef *USBx, USB_OTG_EPTypeDef *ep)
 549:HALLIB/Src/stm32f7xx_ll_usb.c **** {
 550:HALLIB/Src/stm32f7xx_ll_usb.c ****   /* Read DEPCTLn register */
 551:HALLIB/Src/stm32f7xx_ll_usb.c ****   if (ep->is_in == 1)
 552:HALLIB/Src/stm32f7xx_ll_usb.c ****   {
 553:HALLIB/Src/stm32f7xx_ll_usb.c ****    USBx_DEVICE->DEACHMSK &= ~(USB_OTG_DAINTMSK_IEPM & ((1 << (ep->num))));
 554:HALLIB/Src/stm32f7xx_ll_usb.c ****    USBx_DEVICE->DAINTMSK &= ~(USB_OTG_DAINTMSK_IEPM & ((1 << (ep->num))));
 555:HALLIB/Src/stm32f7xx_ll_usb.c ****    USBx_INEP(ep->num)->DIEPCTL &= ~ USB_OTG_DIEPCTL_USBAEP;
 556:HALLIB/Src/stm32f7xx_ll_usb.c ****   }
 557:HALLIB/Src/stm32f7xx_ll_usb.c ****   else
 558:HALLIB/Src/stm32f7xx_ll_usb.c ****   {
 559:HALLIB/Src/stm32f7xx_ll_usb.c ****      USBx_DEVICE->DEACHMSK &= ~(USB_OTG_DAINTMSK_OEPM & ((1 << (ep->num)) << 16));
 560:HALLIB/Src/stm32f7xx_ll_usb.c ****      USBx_DEVICE->DAINTMSK &= ~(USB_OTG_DAINTMSK_OEPM & ((1 << (ep->num)) << 16));
 561:HALLIB/Src/stm32f7xx_ll_usb.c ****      USBx_OUTEP(ep->num)->DOEPCTL &= ~USB_OTG_DOEPCTL_USBAEP;
 562:HALLIB/Src/stm32f7xx_ll_usb.c ****   }
 563:HALLIB/Src/stm32f7xx_ll_usb.c ****   return HAL_OK;
 564:HALLIB/Src/stm32f7xx_ll_usb.c **** }
 565:HALLIB/Src/stm32f7xx_ll_usb.c **** 
 566:HALLIB/Src/stm32f7xx_ll_usb.c **** /**
 567:HALLIB/Src/stm32f7xx_ll_usb.c ****   * @brief  De-activate and de-initialize a dedicated endpoint
 568:HALLIB/Src/stm32f7xx_ll_usb.c ****   * @param  USBx  Selected device
 569:HALLIB/Src/stm32f7xx_ll_usb.c ****   * @param  ep pointer to endpoint structure
 570:HALLIB/Src/stm32f7xx_ll_usb.c ****   * @retval HAL status
 571:HALLIB/Src/stm32f7xx_ll_usb.c ****   */
 572:HALLIB/Src/stm32f7xx_ll_usb.c **** HAL_StatusTypeDef USB_DeactivateDedicatedEndpoint(USB_OTG_GlobalTypeDef *USBx, USB_OTG_EPTypeDef *e
 573:HALLIB/Src/stm32f7xx_ll_usb.c **** {
 574:HALLIB/Src/stm32f7xx_ll_usb.c ****   /* Read DEPCTLn register */
 575:HALLIB/Src/stm32f7xx_ll_usb.c ****   if (ep->is_in == 1)
 576:HALLIB/Src/stm32f7xx_ll_usb.c ****   {
 577:HALLIB/Src/stm32f7xx_ll_usb.c ****    USBx_INEP(ep->num)->DIEPCTL &= ~ USB_OTG_DIEPCTL_USBAEP;
 578:HALLIB/Src/stm32f7xx_ll_usb.c ****    USBx_DEVICE->DAINTMSK &= ~(USB_OTG_DAINTMSK_IEPM & ((1 << (ep->num))));
 579:HALLIB/Src/stm32f7xx_ll_usb.c ****   }
 580:HALLIB/Src/stm32f7xx_ll_usb.c ****   else
 581:HALLIB/Src/stm32f7xx_ll_usb.c ****   {
 582:HALLIB/Src/stm32f7xx_ll_usb.c ****      USBx_OUTEP(ep->num)->DOEPCTL &= ~USB_OTG_DOEPCTL_USBAEP;
 583:HALLIB/Src/stm32f7xx_ll_usb.c ****      USBx_DEVICE->DAINTMSK &= ~(USB_OTG_DAINTMSK_OEPM & ((1 << (ep->num)) << 16));
 584:HALLIB/Src/stm32f7xx_ll_usb.c ****   }
 585:HALLIB/Src/stm32f7xx_ll_usb.c ****   return HAL_OK;
 586:HALLIB/Src/stm32f7xx_ll_usb.c **** }
 587:HALLIB/Src/stm32f7xx_ll_usb.c **** 
 588:HALLIB/Src/stm32f7xx_ll_usb.c **** /**
 589:HALLIB/Src/stm32f7xx_ll_usb.c ****   * @brief  USB_EPStartXfer : setup and starts a transfer over an EP
 590:HALLIB/Src/stm32f7xx_ll_usb.c ****   * @param  USBx  Selected device
 591:HALLIB/Src/stm32f7xx_ll_usb.c ****   * @param  ep pointer to endpoint structure
 592:HALLIB/Src/stm32f7xx_ll_usb.c ****   * @param  dma USB dma enabled or disabled
 593:HALLIB/Src/stm32f7xx_ll_usb.c ****   *          This parameter can be one of these values:
 594:HALLIB/Src/stm32f7xx_ll_usb.c ****   *           0 : DMA feature not used
 595:HALLIB/Src/stm32f7xx_ll_usb.c ****   *           1 : DMA feature used
 596:HALLIB/Src/stm32f7xx_ll_usb.c ****   * @retval HAL status
 597:HALLIB/Src/stm32f7xx_ll_usb.c ****   */
 598:HALLIB/Src/stm32f7xx_ll_usb.c **** HAL_StatusTypeDef USB_EPStartXfer(USB_OTG_GlobalTypeDef *USBx , USB_OTG_EPTypeDef *ep, uint8_t dma)
 599:HALLIB/Src/stm32f7xx_ll_usb.c **** {
 600:HALLIB/Src/stm32f7xx_ll_usb.c ****   uint16_t pktcnt = 0;
 601:HALLIB/Src/stm32f7xx_ll_usb.c **** 
ARM GAS  /tmp/cckeRSC8.s 			page 12


 602:HALLIB/Src/stm32f7xx_ll_usb.c ****   /* IN endpoint */
 603:HALLIB/Src/stm32f7xx_ll_usb.c ****   if (ep->is_in == 1)
 604:HALLIB/Src/stm32f7xx_ll_usb.c ****   {
 605:HALLIB/Src/stm32f7xx_ll_usb.c ****     /* Zero Length Packet? */
 606:HALLIB/Src/stm32f7xx_ll_usb.c ****     if (ep->xfer_len == 0)
 607:HALLIB/Src/stm32f7xx_ll_usb.c ****     {
 608:HALLIB/Src/stm32f7xx_ll_usb.c ****       USBx_INEP(ep->num)->DIEPTSIZ &= ~(USB_OTG_DIEPTSIZ_PKTCNT);
 609:HALLIB/Src/stm32f7xx_ll_usb.c ****       USBx_INEP(ep->num)->DIEPTSIZ |= (USB_OTG_DIEPTSIZ_PKTCNT & (1 << 19)) ;
 610:HALLIB/Src/stm32f7xx_ll_usb.c ****       USBx_INEP(ep->num)->DIEPTSIZ &= ~(USB_OTG_DIEPTSIZ_XFRSIZ);
 611:HALLIB/Src/stm32f7xx_ll_usb.c ****     }
 612:HALLIB/Src/stm32f7xx_ll_usb.c ****     else
 613:HALLIB/Src/stm32f7xx_ll_usb.c ****     {
 614:HALLIB/Src/stm32f7xx_ll_usb.c ****       /* Program the transfer size and packet count
 615:HALLIB/Src/stm32f7xx_ll_usb.c ****       * as follows: xfersize = N * maxpacket +
 616:HALLIB/Src/stm32f7xx_ll_usb.c ****       * short_packet pktcnt = N + (short_packet
 617:HALLIB/Src/stm32f7xx_ll_usb.c ****       * exist ? 1 : 0)
 618:HALLIB/Src/stm32f7xx_ll_usb.c ****       */
 619:HALLIB/Src/stm32f7xx_ll_usb.c ****       USBx_INEP(ep->num)->DIEPTSIZ &= ~(USB_OTG_DIEPTSIZ_XFRSIZ);
 620:HALLIB/Src/stm32f7xx_ll_usb.c ****       USBx_INEP(ep->num)->DIEPTSIZ &= ~(USB_OTG_DIEPTSIZ_PKTCNT);
 621:HALLIB/Src/stm32f7xx_ll_usb.c ****       USBx_INEP(ep->num)->DIEPTSIZ |= (USB_OTG_DIEPTSIZ_PKTCNT & (((ep->xfer_len + ep->maxpacket -1
 622:HALLIB/Src/stm32f7xx_ll_usb.c ****       USBx_INEP(ep->num)->DIEPTSIZ |= (USB_OTG_DIEPTSIZ_XFRSIZ & ep->xfer_len);
 623:HALLIB/Src/stm32f7xx_ll_usb.c **** 
 624:HALLIB/Src/stm32f7xx_ll_usb.c ****       if (ep->type == EP_TYPE_ISOC)
 625:HALLIB/Src/stm32f7xx_ll_usb.c ****       {
 626:HALLIB/Src/stm32f7xx_ll_usb.c ****         USBx_INEP(ep->num)->DIEPTSIZ &= ~(USB_OTG_DIEPTSIZ_MULCNT);
 627:HALLIB/Src/stm32f7xx_ll_usb.c ****         USBx_INEP(ep->num)->DIEPTSIZ |= (USB_OTG_DIEPTSIZ_MULCNT & (1 << 29));
 628:HALLIB/Src/stm32f7xx_ll_usb.c ****       }
 629:HALLIB/Src/stm32f7xx_ll_usb.c ****     }
 630:HALLIB/Src/stm32f7xx_ll_usb.c **** 
 631:HALLIB/Src/stm32f7xx_ll_usb.c ****     if (dma == 1)
 632:HALLIB/Src/stm32f7xx_ll_usb.c ****     {
 633:HALLIB/Src/stm32f7xx_ll_usb.c ****       USBx_INEP(ep->num)->DIEPDMA = (uint32_t)(ep->dma_addr);
 634:HALLIB/Src/stm32f7xx_ll_usb.c ****     }
 635:HALLIB/Src/stm32f7xx_ll_usb.c ****     else
 636:HALLIB/Src/stm32f7xx_ll_usb.c ****     {
 637:HALLIB/Src/stm32f7xx_ll_usb.c ****       if (ep->type != EP_TYPE_ISOC)
 638:HALLIB/Src/stm32f7xx_ll_usb.c ****       {
 639:HALLIB/Src/stm32f7xx_ll_usb.c ****         /* Enable the Tx FIFO Empty Interrupt for this EP */
 640:HALLIB/Src/stm32f7xx_ll_usb.c ****         if (ep->xfer_len > 0)
 641:HALLIB/Src/stm32f7xx_ll_usb.c ****         {
 642:HALLIB/Src/stm32f7xx_ll_usb.c ****           USBx_DEVICE->DIEPEMPMSK |= 1 << ep->num;
 643:HALLIB/Src/stm32f7xx_ll_usb.c ****         }
 644:HALLIB/Src/stm32f7xx_ll_usb.c ****       }
 645:HALLIB/Src/stm32f7xx_ll_usb.c ****     }
 646:HALLIB/Src/stm32f7xx_ll_usb.c **** 
 647:HALLIB/Src/stm32f7xx_ll_usb.c ****     if (ep->type == EP_TYPE_ISOC)
 648:HALLIB/Src/stm32f7xx_ll_usb.c ****     {
 649:HALLIB/Src/stm32f7xx_ll_usb.c ****       if ((USBx_DEVICE->DSTS & ( 1 << 8 )) == 0)
 650:HALLIB/Src/stm32f7xx_ll_usb.c ****       {
 651:HALLIB/Src/stm32f7xx_ll_usb.c ****         USBx_INEP(ep->num)->DIEPCTL |= USB_OTG_DIEPCTL_SODDFRM;
 652:HALLIB/Src/stm32f7xx_ll_usb.c ****       }
 653:HALLIB/Src/stm32f7xx_ll_usb.c ****       else
 654:HALLIB/Src/stm32f7xx_ll_usb.c ****       {
 655:HALLIB/Src/stm32f7xx_ll_usb.c ****         USBx_INEP(ep->num)->DIEPCTL |= USB_OTG_DIEPCTL_SD0PID_SEVNFRM;
 656:HALLIB/Src/stm32f7xx_ll_usb.c ****       }
 657:HALLIB/Src/stm32f7xx_ll_usb.c ****     }
 658:HALLIB/Src/stm32f7xx_ll_usb.c **** 
ARM GAS  /tmp/cckeRSC8.s 			page 13


 659:HALLIB/Src/stm32f7xx_ll_usb.c ****     /* EP enable, IN data in FIFO */
 660:HALLIB/Src/stm32f7xx_ll_usb.c ****     USBx_INEP(ep->num)->DIEPCTL |= (USB_OTG_DIEPCTL_CNAK | USB_OTG_DIEPCTL_EPENA);
 661:HALLIB/Src/stm32f7xx_ll_usb.c **** 
 662:HALLIB/Src/stm32f7xx_ll_usb.c ****     if (ep->type == EP_TYPE_ISOC)
 663:HALLIB/Src/stm32f7xx_ll_usb.c ****     {
 664:HALLIB/Src/stm32f7xx_ll_usb.c ****       USB_WritePacket(USBx, ep->xfer_buff, ep->num, ep->xfer_len, dma);
 665:HALLIB/Src/stm32f7xx_ll_usb.c ****     }
 666:HALLIB/Src/stm32f7xx_ll_usb.c ****   }
 667:HALLIB/Src/stm32f7xx_ll_usb.c ****   else /* OUT endpoint */
 668:HALLIB/Src/stm32f7xx_ll_usb.c ****   {
 669:HALLIB/Src/stm32f7xx_ll_usb.c ****     /* Program the transfer size and packet count as follows:
 670:HALLIB/Src/stm32f7xx_ll_usb.c ****     * pktcnt = N
 671:HALLIB/Src/stm32f7xx_ll_usb.c ****     * xfersize = N * maxpacket
 672:HALLIB/Src/stm32f7xx_ll_usb.c ****     */
 673:HALLIB/Src/stm32f7xx_ll_usb.c ****     USBx_OUTEP(ep->num)->DOEPTSIZ &= ~(USB_OTG_DOEPTSIZ_XFRSIZ);
 674:HALLIB/Src/stm32f7xx_ll_usb.c ****     USBx_OUTEP(ep->num)->DOEPTSIZ &= ~(USB_OTG_DOEPTSIZ_PKTCNT);
 675:HALLIB/Src/stm32f7xx_ll_usb.c **** 
 676:HALLIB/Src/stm32f7xx_ll_usb.c ****     if (ep->xfer_len == 0)
 677:HALLIB/Src/stm32f7xx_ll_usb.c ****     {
 678:HALLIB/Src/stm32f7xx_ll_usb.c ****       USBx_OUTEP(ep->num)->DOEPTSIZ |= (USB_OTG_DOEPTSIZ_XFRSIZ & ep->maxpacket);
 679:HALLIB/Src/stm32f7xx_ll_usb.c ****       USBx_OUTEP(ep->num)->DOEPTSIZ |= (USB_OTG_DOEPTSIZ_PKTCNT & (1 << 19)) ;
 680:HALLIB/Src/stm32f7xx_ll_usb.c ****     }
 681:HALLIB/Src/stm32f7xx_ll_usb.c ****     else
 682:HALLIB/Src/stm32f7xx_ll_usb.c ****     {
 683:HALLIB/Src/stm32f7xx_ll_usb.c ****       pktcnt = (ep->xfer_len + ep->maxpacket -1)/ ep->maxpacket;
 684:HALLIB/Src/stm32f7xx_ll_usb.c ****       USBx_OUTEP(ep->num)->DOEPTSIZ |= (USB_OTG_DOEPTSIZ_PKTCNT & (pktcnt << 19));
 685:HALLIB/Src/stm32f7xx_ll_usb.c ****       USBx_OUTEP(ep->num)->DOEPTSIZ |= (USB_OTG_DOEPTSIZ_XFRSIZ & (ep->maxpacket * pktcnt));
 686:HALLIB/Src/stm32f7xx_ll_usb.c ****     }
 687:HALLIB/Src/stm32f7xx_ll_usb.c **** 
 688:HALLIB/Src/stm32f7xx_ll_usb.c ****     if (dma == 1)
 689:HALLIB/Src/stm32f7xx_ll_usb.c ****     {
 690:HALLIB/Src/stm32f7xx_ll_usb.c ****       USBx_OUTEP(ep->num)->DOEPDMA = (uint32_t)ep->xfer_buff;
 691:HALLIB/Src/stm32f7xx_ll_usb.c ****     }
 692:HALLIB/Src/stm32f7xx_ll_usb.c **** 
 693:HALLIB/Src/stm32f7xx_ll_usb.c ****     if (ep->type == EP_TYPE_ISOC)
 694:HALLIB/Src/stm32f7xx_ll_usb.c ****     {
 695:HALLIB/Src/stm32f7xx_ll_usb.c ****       if ((USBx_DEVICE->DSTS & ( 1 << 8 )) == 0)
 696:HALLIB/Src/stm32f7xx_ll_usb.c ****       {
 697:HALLIB/Src/stm32f7xx_ll_usb.c ****         USBx_OUTEP(ep->num)->DOEPCTL |= USB_OTG_DOEPCTL_SODDFRM;
 698:HALLIB/Src/stm32f7xx_ll_usb.c ****       }
 699:HALLIB/Src/stm32f7xx_ll_usb.c ****       else
 700:HALLIB/Src/stm32f7xx_ll_usb.c ****       {
 701:HALLIB/Src/stm32f7xx_ll_usb.c ****         USBx_OUTEP(ep->num)->DOEPCTL |= USB_OTG_DOEPCTL_SD0PID_SEVNFRM;
 702:HALLIB/Src/stm32f7xx_ll_usb.c ****       }
 703:HALLIB/Src/stm32f7xx_ll_usb.c ****     }
 704:HALLIB/Src/stm32f7xx_ll_usb.c ****     /* EP enable */
 705:HALLIB/Src/stm32f7xx_ll_usb.c ****     USBx_OUTEP(ep->num)->DOEPCTL |= (USB_OTG_DOEPCTL_CNAK | USB_OTG_DOEPCTL_EPENA);
 706:HALLIB/Src/stm32f7xx_ll_usb.c ****   }
 707:HALLIB/Src/stm32f7xx_ll_usb.c ****   return HAL_OK;
 708:HALLIB/Src/stm32f7xx_ll_usb.c **** }
 709:HALLIB/Src/stm32f7xx_ll_usb.c **** 
 710:HALLIB/Src/stm32f7xx_ll_usb.c **** /**
 711:HALLIB/Src/stm32f7xx_ll_usb.c ****   * @brief  USB_EP0StartXfer : setup and starts a transfer over the EP  0
 712:HALLIB/Src/stm32f7xx_ll_usb.c ****   * @param  USBx  Selected device
 713:HALLIB/Src/stm32f7xx_ll_usb.c ****   * @param  ep pointer to endpoint structure
 714:HALLIB/Src/stm32f7xx_ll_usb.c ****   * @param  dma USB dma enabled or disabled
 715:HALLIB/Src/stm32f7xx_ll_usb.c ****   *          This parameter can be one of these values:
ARM GAS  /tmp/cckeRSC8.s 			page 14


 716:HALLIB/Src/stm32f7xx_ll_usb.c ****   *           0 : DMA feature not used
 717:HALLIB/Src/stm32f7xx_ll_usb.c ****   *           1 : DMA feature used
 718:HALLIB/Src/stm32f7xx_ll_usb.c ****   * @retval HAL status
 719:HALLIB/Src/stm32f7xx_ll_usb.c ****   */
 720:HALLIB/Src/stm32f7xx_ll_usb.c **** HAL_StatusTypeDef USB_EP0StartXfer(USB_OTG_GlobalTypeDef *USBx , USB_OTG_EPTypeDef *ep, uint8_t dma
 721:HALLIB/Src/stm32f7xx_ll_usb.c **** {
 722:HALLIB/Src/stm32f7xx_ll_usb.c ****   /* IN endpoint */
 723:HALLIB/Src/stm32f7xx_ll_usb.c ****   if (ep->is_in == 1)
 724:HALLIB/Src/stm32f7xx_ll_usb.c ****   {
 725:HALLIB/Src/stm32f7xx_ll_usb.c ****     /* Zero Length Packet? */
 726:HALLIB/Src/stm32f7xx_ll_usb.c ****     if (ep->xfer_len == 0)
 727:HALLIB/Src/stm32f7xx_ll_usb.c ****     {
 728:HALLIB/Src/stm32f7xx_ll_usb.c ****       USBx_INEP(ep->num)->DIEPTSIZ &= ~(USB_OTG_DIEPTSIZ_PKTCNT);
 729:HALLIB/Src/stm32f7xx_ll_usb.c ****       USBx_INEP(ep->num)->DIEPTSIZ |= (USB_OTG_DIEPTSIZ_PKTCNT & (1 << 19)) ;
 730:HALLIB/Src/stm32f7xx_ll_usb.c ****       USBx_INEP(ep->num)->DIEPTSIZ &= ~(USB_OTG_DIEPTSIZ_XFRSIZ);
 731:HALLIB/Src/stm32f7xx_ll_usb.c ****     }
 732:HALLIB/Src/stm32f7xx_ll_usb.c ****     else
 733:HALLIB/Src/stm32f7xx_ll_usb.c ****     {
 734:HALLIB/Src/stm32f7xx_ll_usb.c ****       /* Program the transfer size and packet count
 735:HALLIB/Src/stm32f7xx_ll_usb.c ****       * as follows: xfersize = N * maxpacket +
 736:HALLIB/Src/stm32f7xx_ll_usb.c ****       * short_packet pktcnt = N + (short_packet
 737:HALLIB/Src/stm32f7xx_ll_usb.c ****       * exist ? 1 : 0)
 738:HALLIB/Src/stm32f7xx_ll_usb.c ****       */
 739:HALLIB/Src/stm32f7xx_ll_usb.c ****       USBx_INEP(ep->num)->DIEPTSIZ &= ~(USB_OTG_DIEPTSIZ_XFRSIZ);
 740:HALLIB/Src/stm32f7xx_ll_usb.c ****       USBx_INEP(ep->num)->DIEPTSIZ &= ~(USB_OTG_DIEPTSIZ_PKTCNT);
 741:HALLIB/Src/stm32f7xx_ll_usb.c **** 
 742:HALLIB/Src/stm32f7xx_ll_usb.c ****       if(ep->xfer_len > ep->maxpacket)
 743:HALLIB/Src/stm32f7xx_ll_usb.c ****       {
 744:HALLIB/Src/stm32f7xx_ll_usb.c ****         ep->xfer_len = ep->maxpacket;
 745:HALLIB/Src/stm32f7xx_ll_usb.c ****       }
 746:HALLIB/Src/stm32f7xx_ll_usb.c ****       USBx_INEP(ep->num)->DIEPTSIZ |= (USB_OTG_DIEPTSIZ_PKTCNT & (1 << 19)) ;
 747:HALLIB/Src/stm32f7xx_ll_usb.c ****       USBx_INEP(ep->num)->DIEPTSIZ |= (USB_OTG_DIEPTSIZ_XFRSIZ & ep->xfer_len);
 748:HALLIB/Src/stm32f7xx_ll_usb.c **** 
 749:HALLIB/Src/stm32f7xx_ll_usb.c ****     }
 750:HALLIB/Src/stm32f7xx_ll_usb.c **** 
 751:HALLIB/Src/stm32f7xx_ll_usb.c ****     if (dma == 1)
 752:HALLIB/Src/stm32f7xx_ll_usb.c ****     {
 753:HALLIB/Src/stm32f7xx_ll_usb.c ****       USBx_INEP(ep->num)->DIEPDMA = (uint32_t)(ep->dma_addr);
 754:HALLIB/Src/stm32f7xx_ll_usb.c ****     }
 755:HALLIB/Src/stm32f7xx_ll_usb.c ****     else
 756:HALLIB/Src/stm32f7xx_ll_usb.c ****     {
 757:HALLIB/Src/stm32f7xx_ll_usb.c ****       /* Enable the Tx FIFO Empty Interrupt for this EP */
 758:HALLIB/Src/stm32f7xx_ll_usb.c ****       if (ep->xfer_len > 0U)
 759:HALLIB/Src/stm32f7xx_ll_usb.c ****       {
 760:HALLIB/Src/stm32f7xx_ll_usb.c ****         USBx_DEVICE->DIEPEMPMSK |= 1U << (ep->num);
 761:HALLIB/Src/stm32f7xx_ll_usb.c ****       }
 762:HALLIB/Src/stm32f7xx_ll_usb.c ****     }
 763:HALLIB/Src/stm32f7xx_ll_usb.c **** 
 764:HALLIB/Src/stm32f7xx_ll_usb.c ****     /* EP enable, IN data in FIFO */
 765:HALLIB/Src/stm32f7xx_ll_usb.c ****     USBx_INEP(ep->num)->DIEPCTL |= (USB_OTG_DIEPCTL_CNAK | USB_OTG_DIEPCTL_EPENA);
 766:HALLIB/Src/stm32f7xx_ll_usb.c ****   }
 767:HALLIB/Src/stm32f7xx_ll_usb.c ****   else /* OUT endpoint */
 768:HALLIB/Src/stm32f7xx_ll_usb.c ****   {
 769:HALLIB/Src/stm32f7xx_ll_usb.c ****     /* Program the transfer size and packet count as follows:
 770:HALLIB/Src/stm32f7xx_ll_usb.c ****     * pktcnt = N
 771:HALLIB/Src/stm32f7xx_ll_usb.c ****     * xfersize = N * maxpacket
 772:HALLIB/Src/stm32f7xx_ll_usb.c ****     */
ARM GAS  /tmp/cckeRSC8.s 			page 15


 773:HALLIB/Src/stm32f7xx_ll_usb.c ****     USBx_OUTEP(ep->num)->DOEPTSIZ &= ~(USB_OTG_DOEPTSIZ_XFRSIZ);
 774:HALLIB/Src/stm32f7xx_ll_usb.c ****     USBx_OUTEP(ep->num)->DOEPTSIZ &= ~(USB_OTG_DOEPTSIZ_PKTCNT);
 775:HALLIB/Src/stm32f7xx_ll_usb.c **** 
 776:HALLIB/Src/stm32f7xx_ll_usb.c ****     if (ep->xfer_len > 0)
 777:HALLIB/Src/stm32f7xx_ll_usb.c ****     {
 778:HALLIB/Src/stm32f7xx_ll_usb.c ****       ep->xfer_len = ep->maxpacket;
 779:HALLIB/Src/stm32f7xx_ll_usb.c ****     }
 780:HALLIB/Src/stm32f7xx_ll_usb.c **** 
 781:HALLIB/Src/stm32f7xx_ll_usb.c ****     USBx_OUTEP(ep->num)->DOEPTSIZ |= (USB_OTG_DOEPTSIZ_PKTCNT & (1 << 19));
 782:HALLIB/Src/stm32f7xx_ll_usb.c ****     USBx_OUTEP(ep->num)->DOEPTSIZ |= (USB_OTG_DOEPTSIZ_XFRSIZ & (ep->maxpacket));
 783:HALLIB/Src/stm32f7xx_ll_usb.c **** 
 784:HALLIB/Src/stm32f7xx_ll_usb.c **** 
 785:HALLIB/Src/stm32f7xx_ll_usb.c ****     if (dma == 1)
 786:HALLIB/Src/stm32f7xx_ll_usb.c ****     {
 787:HALLIB/Src/stm32f7xx_ll_usb.c ****       USBx_OUTEP(ep->num)->DOEPDMA = (uint32_t)(ep->xfer_buff);
 788:HALLIB/Src/stm32f7xx_ll_usb.c ****     }
 789:HALLIB/Src/stm32f7xx_ll_usb.c **** 
 790:HALLIB/Src/stm32f7xx_ll_usb.c ****     /* EP enable */
 791:HALLIB/Src/stm32f7xx_ll_usb.c ****     USBx_OUTEP(ep->num)->DOEPCTL |= (USB_OTG_DOEPCTL_CNAK | USB_OTG_DOEPCTL_EPENA);
 792:HALLIB/Src/stm32f7xx_ll_usb.c ****   }
 793:HALLIB/Src/stm32f7xx_ll_usb.c ****   return HAL_OK;
 794:HALLIB/Src/stm32f7xx_ll_usb.c **** }
 795:HALLIB/Src/stm32f7xx_ll_usb.c **** 
 796:HALLIB/Src/stm32f7xx_ll_usb.c **** /**
 797:HALLIB/Src/stm32f7xx_ll_usb.c ****   * @brief  USB_WritePacket : Writes a packet into the Tx FIFO associated
 798:HALLIB/Src/stm32f7xx_ll_usb.c ****   *         with the EP/channel
 799:HALLIB/Src/stm32f7xx_ll_usb.c ****   * @param  USBx  Selected device
 800:HALLIB/Src/stm32f7xx_ll_usb.c ****   * @param  src   pointer to source buffer
 801:HALLIB/Src/stm32f7xx_ll_usb.c ****   * @param  ch_ep_num  endpoint or host channel number
 802:HALLIB/Src/stm32f7xx_ll_usb.c ****   * @param  len  Number of bytes to write
 803:HALLIB/Src/stm32f7xx_ll_usb.c ****   * @param  dma USB dma enabled or disabled
 804:HALLIB/Src/stm32f7xx_ll_usb.c ****   *          This parameter can be one of these values:
 805:HALLIB/Src/stm32f7xx_ll_usb.c ****   *           0 : DMA feature not used
 806:HALLIB/Src/stm32f7xx_ll_usb.c ****   *           1 : DMA feature used
 807:HALLIB/Src/stm32f7xx_ll_usb.c ****   * @retval HAL status
 808:HALLIB/Src/stm32f7xx_ll_usb.c ****   */
 809:HALLIB/Src/stm32f7xx_ll_usb.c **** HAL_StatusTypeDef USB_WritePacket(USB_OTG_GlobalTypeDef *USBx, uint8_t *src, uint8_t ch_ep_num, uin
 810:HALLIB/Src/stm32f7xx_ll_usb.c **** {
 811:HALLIB/Src/stm32f7xx_ll_usb.c ****   uint32_t count32b= 0 , i= 0;
 812:HALLIB/Src/stm32f7xx_ll_usb.c **** 
 813:HALLIB/Src/stm32f7xx_ll_usb.c ****   if (dma == 0)
 814:HALLIB/Src/stm32f7xx_ll_usb.c ****   {
 815:HALLIB/Src/stm32f7xx_ll_usb.c ****     count32b =  (len + 3) / 4;
 816:HALLIB/Src/stm32f7xx_ll_usb.c ****     for (i = 0; i < count32b; i++, src += 4)
 817:HALLIB/Src/stm32f7xx_ll_usb.c ****     {
 818:HALLIB/Src/stm32f7xx_ll_usb.c ****       USBx_DFIFO(ch_ep_num) = *((__packed uint32_t *)src);
 819:HALLIB/Src/stm32f7xx_ll_usb.c ****     }
 820:HALLIB/Src/stm32f7xx_ll_usb.c ****   }
 821:HALLIB/Src/stm32f7xx_ll_usb.c ****   return HAL_OK;
 822:HALLIB/Src/stm32f7xx_ll_usb.c **** }
 823:HALLIB/Src/stm32f7xx_ll_usb.c **** 
 824:HALLIB/Src/stm32f7xx_ll_usb.c **** /**
 825:HALLIB/Src/stm32f7xx_ll_usb.c ****   * @brief  USB_ReadPacket : read a packet from the Tx FIFO associated
 826:HALLIB/Src/stm32f7xx_ll_usb.c ****   *         with the EP/channel
 827:HALLIB/Src/stm32f7xx_ll_usb.c ****   * @param  USBx  Selected device
 828:HALLIB/Src/stm32f7xx_ll_usb.c ****   * @param  src  source pointer
 829:HALLIB/Src/stm32f7xx_ll_usb.c ****   * @param  ch_ep_num  endpoint or host channel number
ARM GAS  /tmp/cckeRSC8.s 			page 16


 830:HALLIB/Src/stm32f7xx_ll_usb.c ****   * @param  len  Number of bytes to read
 831:HALLIB/Src/stm32f7xx_ll_usb.c ****   * @param  dma USB dma enabled or disabled
 832:HALLIB/Src/stm32f7xx_ll_usb.c ****   *          This parameter can be one of these values:
 833:HALLIB/Src/stm32f7xx_ll_usb.c ****   *           0 : DMA feature not used
 834:HALLIB/Src/stm32f7xx_ll_usb.c ****   *           1 : DMA feature used
 835:HALLIB/Src/stm32f7xx_ll_usb.c ****   * @retval pointer to destination buffer
 836:HALLIB/Src/stm32f7xx_ll_usb.c ****   */
 837:HALLIB/Src/stm32f7xx_ll_usb.c **** void *USB_ReadPacket(USB_OTG_GlobalTypeDef *USBx, uint8_t *dest, uint16_t len)
 838:HALLIB/Src/stm32f7xx_ll_usb.c **** {
 839:HALLIB/Src/stm32f7xx_ll_usb.c ****   uint32_t i=0;
 840:HALLIB/Src/stm32f7xx_ll_usb.c ****   uint32_t count32b = (len + 3) / 4;
 841:HALLIB/Src/stm32f7xx_ll_usb.c **** 
 842:HALLIB/Src/stm32f7xx_ll_usb.c ****   for ( i = 0; i < count32b; i++, dest += 4 )
 843:HALLIB/Src/stm32f7xx_ll_usb.c ****   {
 844:HALLIB/Src/stm32f7xx_ll_usb.c ****     *(__packed uint32_t *)dest = USBx_DFIFO(0);
 845:HALLIB/Src/stm32f7xx_ll_usb.c **** 
 846:HALLIB/Src/stm32f7xx_ll_usb.c ****   }
 847:HALLIB/Src/stm32f7xx_ll_usb.c ****   return ((void *)dest);
 848:HALLIB/Src/stm32f7xx_ll_usb.c **** }
 849:HALLIB/Src/stm32f7xx_ll_usb.c **** 
 850:HALLIB/Src/stm32f7xx_ll_usb.c **** /**
 851:HALLIB/Src/stm32f7xx_ll_usb.c ****   * @brief  USB_EPSetStall : set a stall condition over an EP
 852:HALLIB/Src/stm32f7xx_ll_usb.c ****   * @param  USBx  Selected device
 853:HALLIB/Src/stm32f7xx_ll_usb.c ****   * @param  ep pointer to endpoint structure
 854:HALLIB/Src/stm32f7xx_ll_usb.c ****   * @retval HAL status
 855:HALLIB/Src/stm32f7xx_ll_usb.c ****   */
 856:HALLIB/Src/stm32f7xx_ll_usb.c **** HAL_StatusTypeDef USB_EPSetStall(USB_OTG_GlobalTypeDef *USBx , USB_OTG_EPTypeDef *ep)
 857:HALLIB/Src/stm32f7xx_ll_usb.c **** {
 858:HALLIB/Src/stm32f7xx_ll_usb.c ****   if (ep->is_in == 1)
 859:HALLIB/Src/stm32f7xx_ll_usb.c ****   {
 860:HALLIB/Src/stm32f7xx_ll_usb.c ****     if (((USBx_INEP(ep->num)->DIEPCTL) & USB_OTG_DIEPCTL_EPENA) == 0)
 861:HALLIB/Src/stm32f7xx_ll_usb.c ****     {
 862:HALLIB/Src/stm32f7xx_ll_usb.c ****       USBx_INEP(ep->num)->DIEPCTL &= ~(USB_OTG_DIEPCTL_EPDIS);
 863:HALLIB/Src/stm32f7xx_ll_usb.c ****     }
 864:HALLIB/Src/stm32f7xx_ll_usb.c ****     USBx_INEP(ep->num)->DIEPCTL |= USB_OTG_DIEPCTL_STALL;
 865:HALLIB/Src/stm32f7xx_ll_usb.c ****   }
 866:HALLIB/Src/stm32f7xx_ll_usb.c ****   else
 867:HALLIB/Src/stm32f7xx_ll_usb.c ****   {
 868:HALLIB/Src/stm32f7xx_ll_usb.c ****     if (((USBx_OUTEP(ep->num)->DOEPCTL) & USB_OTG_DOEPCTL_EPENA) == 0)
 869:HALLIB/Src/stm32f7xx_ll_usb.c ****     {
 870:HALLIB/Src/stm32f7xx_ll_usb.c ****       USBx_OUTEP(ep->num)->DOEPCTL &= ~(USB_OTG_DOEPCTL_EPDIS);
 871:HALLIB/Src/stm32f7xx_ll_usb.c ****     }
 872:HALLIB/Src/stm32f7xx_ll_usb.c ****     USBx_OUTEP(ep->num)->DOEPCTL |= USB_OTG_DOEPCTL_STALL;
 873:HALLIB/Src/stm32f7xx_ll_usb.c ****   }
 874:HALLIB/Src/stm32f7xx_ll_usb.c ****   return HAL_OK;
 875:HALLIB/Src/stm32f7xx_ll_usb.c **** }
 876:HALLIB/Src/stm32f7xx_ll_usb.c **** 
 877:HALLIB/Src/stm32f7xx_ll_usb.c **** 
 878:HALLIB/Src/stm32f7xx_ll_usb.c **** /**
 879:HALLIB/Src/stm32f7xx_ll_usb.c ****   * @brief  USB_EPClearStall : Clear a stall condition over an EP
 880:HALLIB/Src/stm32f7xx_ll_usb.c ****   * @param  USBx  Selected device
 881:HALLIB/Src/stm32f7xx_ll_usb.c ****   * @param  ep pointer to endpoint structure
 882:HALLIB/Src/stm32f7xx_ll_usb.c ****   * @retval HAL status
 883:HALLIB/Src/stm32f7xx_ll_usb.c ****   */
 884:HALLIB/Src/stm32f7xx_ll_usb.c **** HAL_StatusTypeDef USB_EPClearStall(USB_OTG_GlobalTypeDef *USBx, USB_OTG_EPTypeDef *ep)
 885:HALLIB/Src/stm32f7xx_ll_usb.c **** {
 886:HALLIB/Src/stm32f7xx_ll_usb.c ****   if (ep->is_in == 1)
ARM GAS  /tmp/cckeRSC8.s 			page 17


 887:HALLIB/Src/stm32f7xx_ll_usb.c ****   {
 888:HALLIB/Src/stm32f7xx_ll_usb.c ****     USBx_INEP(ep->num)->DIEPCTL &= ~USB_OTG_DIEPCTL_STALL;
 889:HALLIB/Src/stm32f7xx_ll_usb.c ****     if (ep->type == EP_TYPE_INTR || ep->type == EP_TYPE_BULK)
 890:HALLIB/Src/stm32f7xx_ll_usb.c ****     {
 891:HALLIB/Src/stm32f7xx_ll_usb.c ****        USBx_INEP(ep->num)->DIEPCTL |= USB_OTG_DIEPCTL_SD0PID_SEVNFRM; /* DATA0 */
 892:HALLIB/Src/stm32f7xx_ll_usb.c ****     }
 893:HALLIB/Src/stm32f7xx_ll_usb.c ****   }
 894:HALLIB/Src/stm32f7xx_ll_usb.c ****   else
 895:HALLIB/Src/stm32f7xx_ll_usb.c ****   {
 896:HALLIB/Src/stm32f7xx_ll_usb.c ****     USBx_OUTEP(ep->num)->DOEPCTL &= ~USB_OTG_DOEPCTL_STALL;
 897:HALLIB/Src/stm32f7xx_ll_usb.c ****     if (ep->type == EP_TYPE_INTR || ep->type == EP_TYPE_BULK)
 898:HALLIB/Src/stm32f7xx_ll_usb.c ****     {
 899:HALLIB/Src/stm32f7xx_ll_usb.c ****       USBx_OUTEP(ep->num)->DOEPCTL |= USB_OTG_DOEPCTL_SD0PID_SEVNFRM; /* DATA0 */
 900:HALLIB/Src/stm32f7xx_ll_usb.c ****     }
 901:HALLIB/Src/stm32f7xx_ll_usb.c ****   }
 902:HALLIB/Src/stm32f7xx_ll_usb.c ****   return HAL_OK;
 903:HALLIB/Src/stm32f7xx_ll_usb.c **** }
 904:HALLIB/Src/stm32f7xx_ll_usb.c **** 
 905:HALLIB/Src/stm32f7xx_ll_usb.c **** /**
 906:HALLIB/Src/stm32f7xx_ll_usb.c ****   * @brief  USB_StopDevice : Stop the usb device mode
 907:HALLIB/Src/stm32f7xx_ll_usb.c ****   * @param  USBx  Selected device
 908:HALLIB/Src/stm32f7xx_ll_usb.c ****   * @retval HAL status
 909:HALLIB/Src/stm32f7xx_ll_usb.c ****   */
 910:HALLIB/Src/stm32f7xx_ll_usb.c **** HAL_StatusTypeDef USB_StopDevice(USB_OTG_GlobalTypeDef *USBx)
 911:HALLIB/Src/stm32f7xx_ll_usb.c **** {
 912:HALLIB/Src/stm32f7xx_ll_usb.c ****   uint32_t i;
 913:HALLIB/Src/stm32f7xx_ll_usb.c **** 
 914:HALLIB/Src/stm32f7xx_ll_usb.c ****   /* Clear Pending interrupt */
 915:HALLIB/Src/stm32f7xx_ll_usb.c ****   for (i = 0; i < 15 ; i++)
 916:HALLIB/Src/stm32f7xx_ll_usb.c ****   {
 917:HALLIB/Src/stm32f7xx_ll_usb.c ****     USBx_INEP(i)->DIEPINT  = 0xFF;
 918:HALLIB/Src/stm32f7xx_ll_usb.c ****     USBx_OUTEP(i)->DOEPINT  = 0xFF;
 919:HALLIB/Src/stm32f7xx_ll_usb.c ****   }
 920:HALLIB/Src/stm32f7xx_ll_usb.c ****   USBx_DEVICE->DAINT = 0xFFFFFFFF;
 921:HALLIB/Src/stm32f7xx_ll_usb.c **** 
 922:HALLIB/Src/stm32f7xx_ll_usb.c ****   /* Clear interrupt masks */
 923:HALLIB/Src/stm32f7xx_ll_usb.c ****   USBx_DEVICE->DIEPMSK  = 0;
 924:HALLIB/Src/stm32f7xx_ll_usb.c ****   USBx_DEVICE->DOEPMSK  = 0;
 925:HALLIB/Src/stm32f7xx_ll_usb.c ****   USBx_DEVICE->DAINTMSK = 0;
 926:HALLIB/Src/stm32f7xx_ll_usb.c **** 
 927:HALLIB/Src/stm32f7xx_ll_usb.c ****   /* Flush the FIFO */
 928:HALLIB/Src/stm32f7xx_ll_usb.c ****   USB_FlushRxFifo(USBx);
 929:HALLIB/Src/stm32f7xx_ll_usb.c ****   USB_FlushTxFifo(USBx ,  0x10 );
 930:HALLIB/Src/stm32f7xx_ll_usb.c **** 
 931:HALLIB/Src/stm32f7xx_ll_usb.c ****   return HAL_OK;
 932:HALLIB/Src/stm32f7xx_ll_usb.c **** }
 933:HALLIB/Src/stm32f7xx_ll_usb.c **** 
 934:HALLIB/Src/stm32f7xx_ll_usb.c **** /**
 935:HALLIB/Src/stm32f7xx_ll_usb.c ****   * @brief  USB_SetDevAddress : Stop the usb device mode
 936:HALLIB/Src/stm32f7xx_ll_usb.c ****   * @param  USBx  Selected device
 937:HALLIB/Src/stm32f7xx_ll_usb.c ****   * @param  address  new device address to be assigned
 938:HALLIB/Src/stm32f7xx_ll_usb.c ****   *          This parameter can be a value from 0 to 255
 939:HALLIB/Src/stm32f7xx_ll_usb.c ****   * @retval HAL status
 940:HALLIB/Src/stm32f7xx_ll_usb.c ****   */
 941:HALLIB/Src/stm32f7xx_ll_usb.c **** HAL_StatusTypeDef  USB_SetDevAddress (USB_OTG_GlobalTypeDef *USBx, uint8_t address)
 942:HALLIB/Src/stm32f7xx_ll_usb.c **** {
 943:HALLIB/Src/stm32f7xx_ll_usb.c ****   USBx_DEVICE->DCFG &= ~ (USB_OTG_DCFG_DAD);
ARM GAS  /tmp/cckeRSC8.s 			page 18


 944:HALLIB/Src/stm32f7xx_ll_usb.c ****   USBx_DEVICE->DCFG |= (address << 4) & USB_OTG_DCFG_DAD ;
 945:HALLIB/Src/stm32f7xx_ll_usb.c **** 
 946:HALLIB/Src/stm32f7xx_ll_usb.c ****   return HAL_OK;
 947:HALLIB/Src/stm32f7xx_ll_usb.c **** }
 948:HALLIB/Src/stm32f7xx_ll_usb.c **** 
 949:HALLIB/Src/stm32f7xx_ll_usb.c **** /**
 950:HALLIB/Src/stm32f7xx_ll_usb.c ****   * @brief  USB_DevConnect : Connect the USB device by enabling the pull-up/pull-down
 951:HALLIB/Src/stm32f7xx_ll_usb.c ****   * @param  USBx  Selected device
 952:HALLIB/Src/stm32f7xx_ll_usb.c ****   * @retval HAL status
 953:HALLIB/Src/stm32f7xx_ll_usb.c ****   */
 954:HALLIB/Src/stm32f7xx_ll_usb.c **** HAL_StatusTypeDef  USB_DevConnect (USB_OTG_GlobalTypeDef *USBx)
 955:HALLIB/Src/stm32f7xx_ll_usb.c **** {
 956:HALLIB/Src/stm32f7xx_ll_usb.c ****   USBx_DEVICE->DCTL &= ~USB_OTG_DCTL_SDIS ;
 957:HALLIB/Src/stm32f7xx_ll_usb.c ****   HAL_Delay(3);
 958:HALLIB/Src/stm32f7xx_ll_usb.c **** 
 959:HALLIB/Src/stm32f7xx_ll_usb.c ****   return HAL_OK;
 960:HALLIB/Src/stm32f7xx_ll_usb.c **** }
 961:HALLIB/Src/stm32f7xx_ll_usb.c **** 
 962:HALLIB/Src/stm32f7xx_ll_usb.c **** /**
 963:HALLIB/Src/stm32f7xx_ll_usb.c ****   * @brief  USB_DevDisconnect : Disconnect the USB device by disabling the pull-up/pull-down
 964:HALLIB/Src/stm32f7xx_ll_usb.c ****   * @param  USBx  Selected device
 965:HALLIB/Src/stm32f7xx_ll_usb.c ****   * @retval HAL status
 966:HALLIB/Src/stm32f7xx_ll_usb.c ****   */
 967:HALLIB/Src/stm32f7xx_ll_usb.c **** HAL_StatusTypeDef  USB_DevDisconnect (USB_OTG_GlobalTypeDef *USBx)
 968:HALLIB/Src/stm32f7xx_ll_usb.c **** {
 969:HALLIB/Src/stm32f7xx_ll_usb.c ****   USBx_DEVICE->DCTL |= USB_OTG_DCTL_SDIS ;
 970:HALLIB/Src/stm32f7xx_ll_usb.c ****   HAL_Delay(3);
 971:HALLIB/Src/stm32f7xx_ll_usb.c **** 
 972:HALLIB/Src/stm32f7xx_ll_usb.c ****   return HAL_OK;
 973:HALLIB/Src/stm32f7xx_ll_usb.c **** }
 974:HALLIB/Src/stm32f7xx_ll_usb.c **** 
 975:HALLIB/Src/stm32f7xx_ll_usb.c **** /**
 976:HALLIB/Src/stm32f7xx_ll_usb.c ****   * @brief  USB_ReadInterrupts: return the global USB interrupt status
 977:HALLIB/Src/stm32f7xx_ll_usb.c ****   * @param  USBx  Selected device
 978:HALLIB/Src/stm32f7xx_ll_usb.c ****   * @retval HAL status
 979:HALLIB/Src/stm32f7xx_ll_usb.c ****   */
 980:HALLIB/Src/stm32f7xx_ll_usb.c **** uint32_t  USB_ReadInterrupts (USB_OTG_GlobalTypeDef *USBx)
 981:HALLIB/Src/stm32f7xx_ll_usb.c **** {
 982:HALLIB/Src/stm32f7xx_ll_usb.c ****   uint32_t v = 0;
 983:HALLIB/Src/stm32f7xx_ll_usb.c **** 
 984:HALLIB/Src/stm32f7xx_ll_usb.c ****   v = USBx->GINTSTS;
 985:HALLIB/Src/stm32f7xx_ll_usb.c ****   v &= USBx->GINTMSK;
 986:HALLIB/Src/stm32f7xx_ll_usb.c ****   return v;
 987:HALLIB/Src/stm32f7xx_ll_usb.c **** }
 988:HALLIB/Src/stm32f7xx_ll_usb.c **** 
 989:HALLIB/Src/stm32f7xx_ll_usb.c **** /**
 990:HALLIB/Src/stm32f7xx_ll_usb.c ****   * @brief  USB_ReadDevAllOutEpInterrupt: return the USB device OUT endpoints interrupt status
 991:HALLIB/Src/stm32f7xx_ll_usb.c ****   * @param  USBx  Selected device
 992:HALLIB/Src/stm32f7xx_ll_usb.c ****   * @retval HAL status
 993:HALLIB/Src/stm32f7xx_ll_usb.c ****   */
 994:HALLIB/Src/stm32f7xx_ll_usb.c **** uint32_t USB_ReadDevAllOutEpInterrupt (USB_OTG_GlobalTypeDef *USBx)
 995:HALLIB/Src/stm32f7xx_ll_usb.c **** {
 996:HALLIB/Src/stm32f7xx_ll_usb.c ****   uint32_t v;
 997:HALLIB/Src/stm32f7xx_ll_usb.c ****   v  = USBx_DEVICE->DAINT;
 998:HALLIB/Src/stm32f7xx_ll_usb.c ****   v &= USBx_DEVICE->DAINTMSK;
 999:HALLIB/Src/stm32f7xx_ll_usb.c ****   return ((v & 0xffff0000) >> 16);
1000:HALLIB/Src/stm32f7xx_ll_usb.c **** }
ARM GAS  /tmp/cckeRSC8.s 			page 19


1001:HALLIB/Src/stm32f7xx_ll_usb.c **** 
1002:HALLIB/Src/stm32f7xx_ll_usb.c **** /**
1003:HALLIB/Src/stm32f7xx_ll_usb.c ****   * @brief  USB_ReadDevAllInEpInterrupt: return the USB device IN endpoints interrupt status
1004:HALLIB/Src/stm32f7xx_ll_usb.c ****   * @param  USBx  Selected device
1005:HALLIB/Src/stm32f7xx_ll_usb.c ****   * @retval HAL status
1006:HALLIB/Src/stm32f7xx_ll_usb.c ****   */
1007:HALLIB/Src/stm32f7xx_ll_usb.c **** uint32_t USB_ReadDevAllInEpInterrupt (USB_OTG_GlobalTypeDef *USBx)
1008:HALLIB/Src/stm32f7xx_ll_usb.c **** {
1009:HALLIB/Src/stm32f7xx_ll_usb.c ****   uint32_t v;
1010:HALLIB/Src/stm32f7xx_ll_usb.c ****   v  = USBx_DEVICE->DAINT;
1011:HALLIB/Src/stm32f7xx_ll_usb.c ****   v &= USBx_DEVICE->DAINTMSK;
1012:HALLIB/Src/stm32f7xx_ll_usb.c ****   return ((v & 0xFFFF));
1013:HALLIB/Src/stm32f7xx_ll_usb.c **** }
1014:HALLIB/Src/stm32f7xx_ll_usb.c **** 
1015:HALLIB/Src/stm32f7xx_ll_usb.c **** /**
1016:HALLIB/Src/stm32f7xx_ll_usb.c ****   * @brief  Returns Device OUT EP Interrupt register
1017:HALLIB/Src/stm32f7xx_ll_usb.c ****   * @param  USBx  Selected device
1018:HALLIB/Src/stm32f7xx_ll_usb.c ****   * @param  epnum  endpoint number
1019:HALLIB/Src/stm32f7xx_ll_usb.c ****   *          This parameter can be a value from 0 to 15
1020:HALLIB/Src/stm32f7xx_ll_usb.c ****   * @retval Device OUT EP Interrupt register
1021:HALLIB/Src/stm32f7xx_ll_usb.c ****   */
1022:HALLIB/Src/stm32f7xx_ll_usb.c **** uint32_t USB_ReadDevOutEPInterrupt (USB_OTG_GlobalTypeDef *USBx , uint8_t epnum)
1023:HALLIB/Src/stm32f7xx_ll_usb.c **** {
1024:HALLIB/Src/stm32f7xx_ll_usb.c ****   uint32_t v;
1025:HALLIB/Src/stm32f7xx_ll_usb.c ****   v  = USBx_OUTEP(epnum)->DOEPINT;
1026:HALLIB/Src/stm32f7xx_ll_usb.c ****   v &= USBx_DEVICE->DOEPMSK;
1027:HALLIB/Src/stm32f7xx_ll_usb.c ****   return v;
1028:HALLIB/Src/stm32f7xx_ll_usb.c **** }
1029:HALLIB/Src/stm32f7xx_ll_usb.c **** 
1030:HALLIB/Src/stm32f7xx_ll_usb.c **** /**
1031:HALLIB/Src/stm32f7xx_ll_usb.c ****   * @brief  Returns Device IN EP Interrupt register
1032:HALLIB/Src/stm32f7xx_ll_usb.c ****   * @param  USBx  Selected device
1033:HALLIB/Src/stm32f7xx_ll_usb.c ****   * @param  epnum  endpoint number
1034:HALLIB/Src/stm32f7xx_ll_usb.c ****   *          This parameter can be a value from 0 to 15
1035:HALLIB/Src/stm32f7xx_ll_usb.c ****   * @retval Device IN EP Interrupt register
1036:HALLIB/Src/stm32f7xx_ll_usb.c ****   */
1037:HALLIB/Src/stm32f7xx_ll_usb.c **** uint32_t USB_ReadDevInEPInterrupt (USB_OTG_GlobalTypeDef *USBx , uint8_t epnum)
1038:HALLIB/Src/stm32f7xx_ll_usb.c **** {
1039:HALLIB/Src/stm32f7xx_ll_usb.c ****   uint32_t v, msk, emp;
1040:HALLIB/Src/stm32f7xx_ll_usb.c **** 
1041:HALLIB/Src/stm32f7xx_ll_usb.c ****   msk = USBx_DEVICE->DIEPMSK;
1042:HALLIB/Src/stm32f7xx_ll_usb.c ****   emp = USBx_DEVICE->DIEPEMPMSK;
1043:HALLIB/Src/stm32f7xx_ll_usb.c ****   msk |= ((emp >> epnum) & 0x1) << 7;
1044:HALLIB/Src/stm32f7xx_ll_usb.c ****   v = USBx_INEP(epnum)->DIEPINT & msk;
1045:HALLIB/Src/stm32f7xx_ll_usb.c ****   return v;
1046:HALLIB/Src/stm32f7xx_ll_usb.c **** }
1047:HALLIB/Src/stm32f7xx_ll_usb.c **** 
1048:HALLIB/Src/stm32f7xx_ll_usb.c **** /**
1049:HALLIB/Src/stm32f7xx_ll_usb.c ****   * @brief  USB_ClearInterrupts: clear a USB interrupt
1050:HALLIB/Src/stm32f7xx_ll_usb.c ****   * @param  USBx  Selected device
1051:HALLIB/Src/stm32f7xx_ll_usb.c ****   * @param  interrupt  interrupt flag
1052:HALLIB/Src/stm32f7xx_ll_usb.c ****   * @retval None
1053:HALLIB/Src/stm32f7xx_ll_usb.c ****   */
1054:HALLIB/Src/stm32f7xx_ll_usb.c **** void  USB_ClearInterrupts (USB_OTG_GlobalTypeDef *USBx, uint32_t interrupt)
1055:HALLIB/Src/stm32f7xx_ll_usb.c **** {
1056:HALLIB/Src/stm32f7xx_ll_usb.c ****   USBx->GINTSTS |= interrupt;
1057:HALLIB/Src/stm32f7xx_ll_usb.c **** }
ARM GAS  /tmp/cckeRSC8.s 			page 20


1058:HALLIB/Src/stm32f7xx_ll_usb.c **** 
1059:HALLIB/Src/stm32f7xx_ll_usb.c **** /**
1060:HALLIB/Src/stm32f7xx_ll_usb.c ****   * @brief  Returns USB core mode
1061:HALLIB/Src/stm32f7xx_ll_usb.c ****   * @param  USBx  Selected device
1062:HALLIB/Src/stm32f7xx_ll_usb.c ****   * @retval return core mode : Host or Device
1063:HALLIB/Src/stm32f7xx_ll_usb.c ****   *          This parameter can be one of these values:
1064:HALLIB/Src/stm32f7xx_ll_usb.c ****   *           0 : Host
1065:HALLIB/Src/stm32f7xx_ll_usb.c ****   *           1 : Device
1066:HALLIB/Src/stm32f7xx_ll_usb.c ****   */
1067:HALLIB/Src/stm32f7xx_ll_usb.c **** uint32_t USB_GetMode(USB_OTG_GlobalTypeDef *USBx)
1068:HALLIB/Src/stm32f7xx_ll_usb.c **** {
1069:HALLIB/Src/stm32f7xx_ll_usb.c ****   return ((USBx->GINTSTS ) & 0x1);
1070:HALLIB/Src/stm32f7xx_ll_usb.c **** }
1071:HALLIB/Src/stm32f7xx_ll_usb.c **** 
1072:HALLIB/Src/stm32f7xx_ll_usb.c **** 
1073:HALLIB/Src/stm32f7xx_ll_usb.c **** /**
1074:HALLIB/Src/stm32f7xx_ll_usb.c ****   * @brief  Activate EP0 for Setup transactions
1075:HALLIB/Src/stm32f7xx_ll_usb.c ****   * @param  USBx  Selected device
1076:HALLIB/Src/stm32f7xx_ll_usb.c ****   * @retval HAL status
1077:HALLIB/Src/stm32f7xx_ll_usb.c ****   */
1078:HALLIB/Src/stm32f7xx_ll_usb.c **** HAL_StatusTypeDef  USB_ActivateSetup (USB_OTG_GlobalTypeDef *USBx)
1079:HALLIB/Src/stm32f7xx_ll_usb.c **** {
1080:HALLIB/Src/stm32f7xx_ll_usb.c ****   /* Set the MPS of the IN EP based on the enumeration speed */
1081:HALLIB/Src/stm32f7xx_ll_usb.c ****   USBx_INEP(0)->DIEPCTL &= ~USB_OTG_DIEPCTL_MPSIZ;
1082:HALLIB/Src/stm32f7xx_ll_usb.c **** 
1083:HALLIB/Src/stm32f7xx_ll_usb.c ****   if((USBx_DEVICE->DSTS & USB_OTG_DSTS_ENUMSPD) == DSTS_ENUMSPD_LS_PHY_6MHZ)
1084:HALLIB/Src/stm32f7xx_ll_usb.c ****   {
1085:HALLIB/Src/stm32f7xx_ll_usb.c ****     USBx_INEP(0)->DIEPCTL |= 3;
1086:HALLIB/Src/stm32f7xx_ll_usb.c ****   }
1087:HALLIB/Src/stm32f7xx_ll_usb.c ****   USBx_DEVICE->DCTL |= USB_OTG_DCTL_CGINAK;
1088:HALLIB/Src/stm32f7xx_ll_usb.c **** 
1089:HALLIB/Src/stm32f7xx_ll_usb.c ****   return HAL_OK;
1090:HALLIB/Src/stm32f7xx_ll_usb.c **** }
1091:HALLIB/Src/stm32f7xx_ll_usb.c **** 
1092:HALLIB/Src/stm32f7xx_ll_usb.c **** 
1093:HALLIB/Src/stm32f7xx_ll_usb.c **** /**
1094:HALLIB/Src/stm32f7xx_ll_usb.c ****   * @brief  Prepare the EP0 to start the first control setup
1095:HALLIB/Src/stm32f7xx_ll_usb.c ****   * @param  USBx  Selected device
1096:HALLIB/Src/stm32f7xx_ll_usb.c ****   * @param  dma USB dma enabled or disabled
1097:HALLIB/Src/stm32f7xx_ll_usb.c ****   *          This parameter can be one of these values:
1098:HALLIB/Src/stm32f7xx_ll_usb.c ****   *           0 : DMA feature not used
1099:HALLIB/Src/stm32f7xx_ll_usb.c ****   *           1 : DMA feature used
1100:HALLIB/Src/stm32f7xx_ll_usb.c ****   * @param  psetup  pointer to setup packet
1101:HALLIB/Src/stm32f7xx_ll_usb.c ****   * @retval HAL status
1102:HALLIB/Src/stm32f7xx_ll_usb.c ****   */
1103:HALLIB/Src/stm32f7xx_ll_usb.c **** HAL_StatusTypeDef USB_EP0_OutStart(USB_OTG_GlobalTypeDef *USBx, uint8_t dma, uint8_t *psetup)
1104:HALLIB/Src/stm32f7xx_ll_usb.c **** {
1105:HALLIB/Src/stm32f7xx_ll_usb.c ****   USBx_OUTEP(0)->DOEPTSIZ = 0;
1106:HALLIB/Src/stm32f7xx_ll_usb.c ****   USBx_OUTEP(0)->DOEPTSIZ |= (USB_OTG_DOEPTSIZ_PKTCNT & (1 << 19)) ;
1107:HALLIB/Src/stm32f7xx_ll_usb.c ****   USBx_OUTEP(0)->DOEPTSIZ |= (3 * 8);
1108:HALLIB/Src/stm32f7xx_ll_usb.c ****   USBx_OUTEP(0)->DOEPTSIZ |=  USB_OTG_DOEPTSIZ_STUPCNT;
1109:HALLIB/Src/stm32f7xx_ll_usb.c **** 
1110:HALLIB/Src/stm32f7xx_ll_usb.c ****   if (dma == 1)
1111:HALLIB/Src/stm32f7xx_ll_usb.c ****   {
1112:HALLIB/Src/stm32f7xx_ll_usb.c ****     USBx_OUTEP(0)->DOEPDMA = (uint32_t)psetup;
1113:HALLIB/Src/stm32f7xx_ll_usb.c ****     /* EP enable */
1114:HALLIB/Src/stm32f7xx_ll_usb.c ****     USBx_OUTEP(0)->DOEPCTL = 0x80008000;
ARM GAS  /tmp/cckeRSC8.s 			page 21


1115:HALLIB/Src/stm32f7xx_ll_usb.c ****   }
1116:HALLIB/Src/stm32f7xx_ll_usb.c **** 
1117:HALLIB/Src/stm32f7xx_ll_usb.c ****   return HAL_OK;
1118:HALLIB/Src/stm32f7xx_ll_usb.c **** }
1119:HALLIB/Src/stm32f7xx_ll_usb.c **** 
1120:HALLIB/Src/stm32f7xx_ll_usb.c **** 
1121:HALLIB/Src/stm32f7xx_ll_usb.c **** /**
1122:HALLIB/Src/stm32f7xx_ll_usb.c ****   * @brief  Reset the USB Core (needed after USB clock settings change)
1123:HALLIB/Src/stm32f7xx_ll_usb.c ****   * @param  USBx  Selected device
1124:HALLIB/Src/stm32f7xx_ll_usb.c ****   * @retval HAL status
1125:HALLIB/Src/stm32f7xx_ll_usb.c ****   */
1126:HALLIB/Src/stm32f7xx_ll_usb.c **** static HAL_StatusTypeDef USB_CoreReset(USB_OTG_GlobalTypeDef *USBx)
1127:HALLIB/Src/stm32f7xx_ll_usb.c **** {
  28              		.loc 1 1127 0
  29              		.cfi_startproc
  30              		@ args = 0, pretend = 0, frame = 0
  31              		@ frame_needed = 0, uses_anonymous_args = 0
  32              		@ link register save eliminated.
  33              	.LVL0:
1128:HALLIB/Src/stm32f7xx_ll_usb.c ****   uint32_t count = 0;
  34              		.loc 1 1128 0
  35 0000 0023     		movs	r3, #0
  36              	.LVL1:
  37              	.L3:
1129:HALLIB/Src/stm32f7xx_ll_usb.c **** 
1130:HALLIB/Src/stm32f7xx_ll_usb.c ****   /* Wait for AHB master IDLE state. */
1131:HALLIB/Src/stm32f7xx_ll_usb.c ****   do
1132:HALLIB/Src/stm32f7xx_ll_usb.c ****   {
1133:HALLIB/Src/stm32f7xx_ll_usb.c ****     if (++count > 200000)
  38              		.loc 1 1133 0
  39 0002 0133     		adds	r3, r3, #1
  40              	.LVL2:
  41 0004 0C4A     		ldr	r2, .L7
  42 0006 9342     		cmp	r3, r2
  43 0008 11D8     		bhi	.L5
1134:HALLIB/Src/stm32f7xx_ll_usb.c ****     {
1135:HALLIB/Src/stm32f7xx_ll_usb.c ****       return HAL_TIMEOUT;
1136:HALLIB/Src/stm32f7xx_ll_usb.c ****     }
1137:HALLIB/Src/stm32f7xx_ll_usb.c ****   }
1138:HALLIB/Src/stm32f7xx_ll_usb.c ****   while ((USBx->GRSTCTL & USB_OTG_GRSTCTL_AHBIDL) == 0);
  44              		.loc 1 1138 0
  45 000a 0269     		ldr	r2, [r0, #16]
  46 000c 002A     		cmp	r2, #0
  47 000e F8DA     		bge	.L3
  48              	.LVL3:
1139:HALLIB/Src/stm32f7xx_ll_usb.c **** 
1140:HALLIB/Src/stm32f7xx_ll_usb.c ****   /* Core Soft Reset */
1141:HALLIB/Src/stm32f7xx_ll_usb.c ****   count = 0;
1142:HALLIB/Src/stm32f7xx_ll_usb.c ****   USBx->GRSTCTL |= USB_OTG_GRSTCTL_CSRST;
  49              		.loc 1 1142 0
  50 0010 0369     		ldr	r3, [r0, #16]
  51 0012 43F00103 		orr	r3, r3, #1
  52 0016 0361     		str	r3, [r0, #16]
1141:HALLIB/Src/stm32f7xx_ll_usb.c ****   USBx->GRSTCTL |= USB_OTG_GRSTCTL_CSRST;
  53              		.loc 1 1141 0
  54 0018 0023     		movs	r3, #0
  55              	.LVL4:
ARM GAS  /tmp/cckeRSC8.s 			page 22


  56              	.L4:
1143:HALLIB/Src/stm32f7xx_ll_usb.c **** 
1144:HALLIB/Src/stm32f7xx_ll_usb.c ****   do
1145:HALLIB/Src/stm32f7xx_ll_usb.c ****   {
1146:HALLIB/Src/stm32f7xx_ll_usb.c ****     if (++count > 200000)
  57              		.loc 1 1146 0
  58 001a 0133     		adds	r3, r3, #1
  59              	.LVL5:
  60 001c 064A     		ldr	r2, .L7
  61 001e 9342     		cmp	r3, r2
  62 0020 07D8     		bhi	.L6
1147:HALLIB/Src/stm32f7xx_ll_usb.c ****     {
1148:HALLIB/Src/stm32f7xx_ll_usb.c ****       return HAL_TIMEOUT;
1149:HALLIB/Src/stm32f7xx_ll_usb.c ****     }
1150:HALLIB/Src/stm32f7xx_ll_usb.c ****   }
1151:HALLIB/Src/stm32f7xx_ll_usb.c ****   while ((USBx->GRSTCTL & USB_OTG_GRSTCTL_CSRST) == USB_OTG_GRSTCTL_CSRST);
  63              		.loc 1 1151 0
  64 0022 0269     		ldr	r2, [r0, #16]
  65 0024 12F0010F 		tst	r2, #1
  66 0028 F7D1     		bne	.L4
1152:HALLIB/Src/stm32f7xx_ll_usb.c **** 
1153:HALLIB/Src/stm32f7xx_ll_usb.c ****   return HAL_OK;
  67              		.loc 1 1153 0
  68 002a 0020     		movs	r0, #0
  69              	.LVL6:
  70 002c 7047     		bx	lr
  71              	.LVL7:
  72              	.L5:
1135:HALLIB/Src/stm32f7xx_ll_usb.c ****     }
  73              		.loc 1 1135 0
  74 002e 0320     		movs	r0, #3
  75              	.LVL8:
  76 0030 7047     		bx	lr
  77              	.LVL9:
  78              	.L6:
1148:HALLIB/Src/stm32f7xx_ll_usb.c ****     }
  79              		.loc 1 1148 0
  80 0032 0320     		movs	r0, #3
  81              	.LVL10:
1154:HALLIB/Src/stm32f7xx_ll_usb.c **** }
  82              		.loc 1 1154 0
  83 0034 7047     		bx	lr
  84              	.L8:
  85 0036 00BF     		.align	2
  86              	.L7:
  87 0038 400D0300 		.word	200000
  88              		.cfi_endproc
  89              	.LFE168:
  91              		.section	.text.USB_CoreInit,"ax",%progbits
  92              		.align	2
  93              		.global	USB_CoreInit
  94              		.thumb
  95              		.thumb_func
  97              	USB_CoreInit:
  98              	.LFB136:
 103:HALLIB/Src/stm32f7xx_ll_usb.c ****   if (cfg.phy_itface == USB_OTG_ULPI_PHY)
  99              		.loc 1 103 0
ARM GAS  /tmp/cckeRSC8.s 			page 23


 100              		.cfi_startproc
 101              		@ args = 56, pretend = 16, frame = 0
 102              		@ frame_needed = 0, uses_anonymous_args = 0
 103              	.LVL11:
 104 0000 84B0     		sub	sp, sp, #16
 105              	.LCFI0:
 106              		.cfi_def_cfa_offset 16
 107 0002 10B5     		push	{r4, lr}
 108              	.LCFI1:
 109              		.cfi_def_cfa_offset 24
 110              		.cfi_offset 4, -24
 111              		.cfi_offset 14, -20
 112 0004 0446     		mov	r4, r0
 113 0006 03A8     		add	r0, sp, #12
 114              	.LVL12:
 115 0008 80E80E00 		stmia	r0, {r1, r2, r3}
 104:HALLIB/Src/stm32f7xx_ll_usb.c ****   {
 116              		.loc 1 104 0
 117 000c 089B     		ldr	r3, [sp, #32]
 118 000e 012B     		cmp	r3, #1
 119 0010 16D1     		bne	.L10
 107:HALLIB/Src/stm32f7xx_ll_usb.c **** 
 120              		.loc 1 107 0
 121 0012 A36B     		ldr	r3, [r4, #56]
 122 0014 23F48033 		bic	r3, r3, #65536
 123 0018 A363     		str	r3, [r4, #56]
 110:HALLIB/Src/stm32f7xx_ll_usb.c **** 
 124              		.loc 1 110 0
 125 001a E268     		ldr	r2, [r4, #12]
 126 001c 154B     		ldr	r3, .L15
 127 001e 1340     		ands	r3, r3, r2
 128 0020 E360     		str	r3, [r4, #12]
 113:HALLIB/Src/stm32f7xx_ll_usb.c ****     if(cfg.use_external_vbus == 1)
 129              		.loc 1 113 0
 130 0022 E368     		ldr	r3, [r4, #12]
 131 0024 23F44013 		bic	r3, r3, #3145728
 132 0028 E360     		str	r3, [r4, #12]
 114:HALLIB/Src/stm32f7xx_ll_usb.c ****     {
 133              		.loc 1 114 0
 134 002a 0F9B     		ldr	r3, [sp, #60]
 135 002c 012B     		cmp	r3, #1
 136 002e 03D1     		bne	.L11
 116:HALLIB/Src/stm32f7xx_ll_usb.c ****     }
 137              		.loc 1 116 0
 138 0030 E368     		ldr	r3, [r4, #12]
 139 0032 43F48013 		orr	r3, r3, #1048576
 140 0036 E360     		str	r3, [r4, #12]
 141              	.L11:
 119:HALLIB/Src/stm32f7xx_ll_usb.c ****   }
 142              		.loc 1 119 0
 143 0038 2046     		mov	r0, r4
 144 003a FFF7FEFF 		bl	USB_CoreReset
 145              	.LVL13:
 146 003e 09E0     		b	.L12
 147              	.L10:
 152:HALLIB/Src/stm32f7xx_ll_usb.c **** 
 148              		.loc 1 152 0
ARM GAS  /tmp/cckeRSC8.s 			page 24


 149 0040 E368     		ldr	r3, [r4, #12]
 150 0042 43F04003 		orr	r3, r3, #64
 151 0046 E360     		str	r3, [r4, #12]
 155:HALLIB/Src/stm32f7xx_ll_usb.c **** 
 152              		.loc 1 155 0
 153 0048 2046     		mov	r0, r4
 154 004a FFF7FEFF 		bl	USB_CoreReset
 155              	.LVL14:
 158:HALLIB/Src/stm32f7xx_ll_usb.c ****   }
 156              		.loc 1 158 0
 157 004e 4FF48033 		mov	r3, #65536
 158 0052 A363     		str	r3, [r4, #56]
 159              	.L12:
 161:HALLIB/Src/stm32f7xx_ll_usb.c ****   {
 160              		.loc 1 161 0
 161 0054 069B     		ldr	r3, [sp, #24]
 162 0056 012B     		cmp	r3, #1
 163 0058 07D1     		bne	.L13
 163:HALLIB/Src/stm32f7xx_ll_usb.c ****     USBx->GAHBCFG |= USB_OTG_GAHBCFG_DMAEN;
 164              		.loc 1 163 0
 165 005a A368     		ldr	r3, [r4, #8]
 166 005c 43F00603 		orr	r3, r3, #6
 167 0060 A360     		str	r3, [r4, #8]
 164:HALLIB/Src/stm32f7xx_ll_usb.c ****   }
 168              		.loc 1 164 0
 169 0062 A368     		ldr	r3, [r4, #8]
 170 0064 43F02003 		orr	r3, r3, #32
 171 0068 A360     		str	r3, [r4, #8]
 172              	.L13:
 168:HALLIB/Src/stm32f7xx_ll_usb.c **** 
 173              		.loc 1 168 0
 174 006a 0020     		movs	r0, #0
 175 006c BDE81040 		pop	{r4, lr}
 176              	.LCFI2:
 177              		.cfi_restore 14
 178              		.cfi_restore 4
 179              		.cfi_def_cfa_offset 16
 180              	.LVL15:
 181 0070 04B0     		add	sp, sp, #16
 182              	.LCFI3:
 183              		.cfi_def_cfa_offset 0
 184 0072 7047     		bx	lr
 185              	.L16:
 186              		.align	2
 187              	.L15:
 188 0074 BFFFBDFF 		.word	-4325441
 189              		.cfi_endproc
 190              	.LFE136:
 192              		.section	.text.USB_EnableGlobalInt,"ax",%progbits
 193              		.align	2
 194              		.global	USB_EnableGlobalInt
 195              		.thumb
 196              		.thumb_func
 198              	USB_EnableGlobalInt:
 199              	.LFB137:
 177:HALLIB/Src/stm32f7xx_ll_usb.c ****   USBx->GAHBCFG |= USB_OTG_GAHBCFG_GINT;
 200              		.loc 1 177 0
ARM GAS  /tmp/cckeRSC8.s 			page 25


 201              		.cfi_startproc
 202              		@ args = 0, pretend = 0, frame = 0
 203              		@ frame_needed = 0, uses_anonymous_args = 0
 204              		@ link register save eliminated.
 205              	.LVL16:
 178:HALLIB/Src/stm32f7xx_ll_usb.c ****   return HAL_OK;
 206              		.loc 1 178 0
 207 0000 8368     		ldr	r3, [r0, #8]
 208 0002 43F00103 		orr	r3, r3, #1
 209 0006 8360     		str	r3, [r0, #8]
 180:HALLIB/Src/stm32f7xx_ll_usb.c **** 
 210              		.loc 1 180 0
 211 0008 0020     		movs	r0, #0
 212              	.LVL17:
 213 000a 7047     		bx	lr
 214              		.cfi_endproc
 215              	.LFE137:
 217              		.section	.text.USB_DisableGlobalInt,"ax",%progbits
 218              		.align	2
 219              		.global	USB_DisableGlobalInt
 220              		.thumb
 221              		.thumb_func
 223              	USB_DisableGlobalInt:
 224              	.LFB138:
 190:HALLIB/Src/stm32f7xx_ll_usb.c ****   USBx->GAHBCFG &= ~USB_OTG_GAHBCFG_GINT;
 225              		.loc 1 190 0
 226              		.cfi_startproc
 227              		@ args = 0, pretend = 0, frame = 0
 228              		@ frame_needed = 0, uses_anonymous_args = 0
 229              		@ link register save eliminated.
 230              	.LVL18:
 191:HALLIB/Src/stm32f7xx_ll_usb.c ****   return HAL_OK;
 231              		.loc 1 191 0
 232 0000 8368     		ldr	r3, [r0, #8]
 233 0002 23F00103 		bic	r3, r3, #1
 234 0006 8360     		str	r3, [r0, #8]
 193:HALLIB/Src/stm32f7xx_ll_usb.c **** 
 235              		.loc 1 193 0
 236 0008 0020     		movs	r0, #0
 237              	.LVL19:
 238 000a 7047     		bx	lr
 239              		.cfi_endproc
 240              	.LFE138:
 242              		.section	.text.USB_SetCurrentMode,"ax",%progbits
 243              		.align	2
 244              		.global	USB_SetCurrentMode
 245              		.thumb
 246              		.thumb_func
 248              	USB_SetCurrentMode:
 249              	.LFB139:
 206:HALLIB/Src/stm32f7xx_ll_usb.c ****   USBx->GUSBCFG &= ~(USB_OTG_GUSBCFG_FHMOD | USB_OTG_GUSBCFG_FDMOD);
 250              		.loc 1 206 0
 251              		.cfi_startproc
 252              		@ args = 0, pretend = 0, frame = 0
 253              		@ frame_needed = 0, uses_anonymous_args = 0
 254              	.LVL20:
 255 0000 08B5     		push	{r3, lr}
ARM GAS  /tmp/cckeRSC8.s 			page 26


 256              	.LCFI4:
 257              		.cfi_def_cfa_offset 8
 258              		.cfi_offset 3, -8
 259              		.cfi_offset 14, -4
 207:HALLIB/Src/stm32f7xx_ll_usb.c **** 
 260              		.loc 1 207 0
 261 0002 C368     		ldr	r3, [r0, #12]
 262 0004 23F0C043 		bic	r3, r3, #1610612736
 263 0008 C360     		str	r3, [r0, #12]
 209:HALLIB/Src/stm32f7xx_ll_usb.c ****   {
 264              		.loc 1 209 0
 265 000a 0129     		cmp	r1, #1
 266 000c 04D1     		bne	.L20
 211:HALLIB/Src/stm32f7xx_ll_usb.c ****   }
 267              		.loc 1 211 0
 268 000e C368     		ldr	r3, [r0, #12]
 269 0010 43F00053 		orr	r3, r3, #536870912
 270 0014 C360     		str	r3, [r0, #12]
 271 0016 04E0     		b	.L21
 272              	.L20:
 213:HALLIB/Src/stm32f7xx_ll_usb.c ****   {
 273              		.loc 1 213 0
 274 0018 19B9     		cbnz	r1, .L21
 215:HALLIB/Src/stm32f7xx_ll_usb.c ****   }
 275              		.loc 1 215 0
 276 001a C368     		ldr	r3, [r0, #12]
 277 001c 43F08043 		orr	r3, r3, #1073741824
 278 0020 C360     		str	r3, [r0, #12]
 279              	.L21:
 217:HALLIB/Src/stm32f7xx_ll_usb.c **** 
 280              		.loc 1 217 0
 281 0022 3220     		movs	r0, #50
 282              	.LVL21:
 283 0024 FFF7FEFF 		bl	HAL_Delay
 284              	.LVL22:
 220:HALLIB/Src/stm32f7xx_ll_usb.c **** 
 285              		.loc 1 220 0
 286 0028 0020     		movs	r0, #0
 287 002a 08BD     		pop	{r3, pc}
 288              		.cfi_endproc
 289              	.LFE139:
 291              		.section	.text.USB_FlushTxFifo,"ax",%progbits
 292              		.align	2
 293              		.global	USB_FlushTxFifo
 294              		.thumb
 295              		.thumb_func
 297              	USB_FlushTxFifo:
 298              	.LFB141:
 379:HALLIB/Src/stm32f7xx_ll_usb.c ****   uint32_t count = 0;
 299              		.loc 1 379 0
 300              		.cfi_startproc
 301              		@ args = 0, pretend = 0, frame = 0
 302              		@ frame_needed = 0, uses_anonymous_args = 0
 303              		@ link register save eliminated.
 304              	.LVL23:
 382:HALLIB/Src/stm32f7xx_ll_usb.c **** 
 305              		.loc 1 382 0
ARM GAS  /tmp/cckeRSC8.s 			page 27


 306 0000 8901     		lsls	r1, r1, #6
 307              	.LVL24:
 308 0002 41F02001 		orr	r1, r1, #32
 309 0006 0161     		str	r1, [r0, #16]
 380:HALLIB/Src/stm32f7xx_ll_usb.c **** 
 310              		.loc 1 380 0
 311 0008 0023     		movs	r3, #0
 312              	.LVL25:
 313              	.L25:
 386:HALLIB/Src/stm32f7xx_ll_usb.c ****     {
 314              		.loc 1 386 0
 315 000a 0133     		adds	r3, r3, #1
 316              	.LVL26:
 317 000c 054A     		ldr	r2, .L27
 318 000e 9342     		cmp	r3, r2
 319 0010 05D8     		bhi	.L26
 391:HALLIB/Src/stm32f7xx_ll_usb.c **** 
 320              		.loc 1 391 0
 321 0012 0269     		ldr	r2, [r0, #16]
 322 0014 12F0200F 		tst	r2, #32
 323 0018 F7D1     		bne	.L25
 393:HALLIB/Src/stm32f7xx_ll_usb.c **** }
 324              		.loc 1 393 0
 325 001a 0020     		movs	r0, #0
 326              	.LVL27:
 327 001c 7047     		bx	lr
 328              	.LVL28:
 329              	.L26:
 388:HALLIB/Src/stm32f7xx_ll_usb.c ****     }
 330              		.loc 1 388 0
 331 001e 0320     		movs	r0, #3
 332              	.LVL29:
 394:HALLIB/Src/stm32f7xx_ll_usb.c **** 
 333              		.loc 1 394 0
 334 0020 7047     		bx	lr
 335              	.L28:
 336 0022 00BF     		.align	2
 337              	.L27:
 338 0024 400D0300 		.word	200000
 339              		.cfi_endproc
 340              	.LFE141:
 342              		.section	.text.USB_FlushRxFifo,"ax",%progbits
 343              		.align	2
 344              		.global	USB_FlushRxFifo
 345              		.thumb
 346              		.thumb_func
 348              	USB_FlushRxFifo:
 349              	.LFB142:
 403:HALLIB/Src/stm32f7xx_ll_usb.c ****   uint32_t count = 0;
 350              		.loc 1 403 0
 351              		.cfi_startproc
 352              		@ args = 0, pretend = 0, frame = 0
 353              		@ frame_needed = 0, uses_anonymous_args = 0
 354              		@ link register save eliminated.
 355              	.LVL30:
 406:HALLIB/Src/stm32f7xx_ll_usb.c **** 
 356              		.loc 1 406 0
ARM GAS  /tmp/cckeRSC8.s 			page 28


 357 0000 1023     		movs	r3, #16
 358 0002 0361     		str	r3, [r0, #16]
 404:HALLIB/Src/stm32f7xx_ll_usb.c **** 
 359              		.loc 1 404 0
 360 0004 0023     		movs	r3, #0
 361              	.LVL31:
 362              	.L31:
 410:HALLIB/Src/stm32f7xx_ll_usb.c ****     {
 363              		.loc 1 410 0
 364 0006 0133     		adds	r3, r3, #1
 365              	.LVL32:
 366 0008 054A     		ldr	r2, .L33
 367 000a 9342     		cmp	r3, r2
 368 000c 05D8     		bhi	.L32
 415:HALLIB/Src/stm32f7xx_ll_usb.c **** 
 369              		.loc 1 415 0
 370 000e 0269     		ldr	r2, [r0, #16]
 371 0010 12F0100F 		tst	r2, #16
 372 0014 F7D1     		bne	.L31
 417:HALLIB/Src/stm32f7xx_ll_usb.c **** }
 373              		.loc 1 417 0
 374 0016 0020     		movs	r0, #0
 375              	.LVL33:
 376 0018 7047     		bx	lr
 377              	.LVL34:
 378              	.L32:
 412:HALLIB/Src/stm32f7xx_ll_usb.c ****     }
 379              		.loc 1 412 0
 380 001a 0320     		movs	r0, #3
 381              	.LVL35:
 418:HALLIB/Src/stm32f7xx_ll_usb.c **** 
 382              		.loc 1 418 0
 383 001c 7047     		bx	lr
 384              	.L34:
 385 001e 00BF     		.align	2
 386              	.L33:
 387 0020 400D0300 		.word	200000
 388              		.cfi_endproc
 389              	.LFE142:
 391              		.section	.text.USB_SetDevSpeed,"ax",%progbits
 392              		.align	2
 393              		.global	USB_SetDevSpeed
 394              		.thumb
 395              		.thumb_func
 397              	USB_SetDevSpeed:
 398              	.LFB143:
 433:HALLIB/Src/stm32f7xx_ll_usb.c ****   USBx_DEVICE->DCFG |= speed;
 399              		.loc 1 433 0
 400              		.cfi_startproc
 401              		@ args = 0, pretend = 0, frame = 0
 402              		@ frame_needed = 0, uses_anonymous_args = 0
 403              		@ link register save eliminated.
 404              	.LVL36:
 434:HALLIB/Src/stm32f7xx_ll_usb.c ****   return HAL_OK;
 405              		.loc 1 434 0
 406 0000 D0F80038 		ldr	r3, [r0, #2048]
 407 0004 1943     		orrs	r1, r1, r3
ARM GAS  /tmp/cckeRSC8.s 			page 29


 408              	.LVL37:
 409 0006 C0F80018 		str	r1, [r0, #2048]
 436:HALLIB/Src/stm32f7xx_ll_usb.c **** 
 410              		.loc 1 436 0
 411 000a 0020     		movs	r0, #0
 412              	.LVL38:
 413 000c 7047     		bx	lr
 414              		.cfi_endproc
 415              	.LFE143:
 417 000e 00BF     		.section	.text.USB_DevInit,"ax",%progbits
 418              		.align	2
 419              		.global	USB_DevInit
 420              		.thumb
 421              		.thumb_func
 423              	USB_DevInit:
 424              	.LFB140:
 231:HALLIB/Src/stm32f7xx_ll_usb.c ****   uint32_t i = 0;
 425              		.loc 1 231 0
 426              		.cfi_startproc
 427              		@ args = 56, pretend = 16, frame = 0
 428              		@ frame_needed = 0, uses_anonymous_args = 0
 429              	.LVL39:
 430 0000 84B0     		sub	sp, sp, #16
 431              	.LCFI5:
 432              		.cfi_def_cfa_offset 16
 433 0002 F8B5     		push	{r3, r4, r5, r6, r7, lr}
 434              	.LCFI6:
 435              		.cfi_def_cfa_offset 40
 436              		.cfi_offset 3, -40
 437              		.cfi_offset 4, -36
 438              		.cfi_offset 5, -32
 439              		.cfi_offset 6, -28
 440              		.cfi_offset 7, -24
 441              		.cfi_offset 14, -20
 442 0004 0546     		mov	r5, r0
 443 0006 07A8     		add	r0, sp, #28
 444              	.LVL40:
 445 0008 80E80E00 		stmia	r0, {r1, r2, r3}
 446              	.LVL41:
 235:HALLIB/Src/stm32f7xx_ll_usb.c **** 
 447              		.loc 1 235 0
 448 000c AB6B     		ldr	r3, [r5, #56]
 449 000e 43F40013 		orr	r3, r3, #2097152
 450 0012 AB63     		str	r3, [r5, #56]
 237:HALLIB/Src/stm32f7xx_ll_usb.c ****   {
 451              		.loc 1 237 0
 452 0014 119F     		ldr	r7, [sp, #68]
 453 0016 5FB9     		cbnz	r7, .L37
 240:HALLIB/Src/stm32f7xx_ll_usb.c **** 
 454              		.loc 1 240 0
 455 0018 AB6B     		ldr	r3, [r5, #56]
 456 001a 23F40013 		bic	r3, r3, #2097152
 457 001e AB63     		str	r3, [r5, #56]
 243:HALLIB/Src/stm32f7xx_ll_usb.c ****     USBx->GOTGCTL |= USB_OTG_GOTGCTL_BVALOVAL;
 458              		.loc 1 243 0
 459 0020 2B68     		ldr	r3, [r5]
 460 0022 43F04003 		orr	r3, r3, #64
ARM GAS  /tmp/cckeRSC8.s 			page 30


 461 0026 2B60     		str	r3, [r5]
 244:HALLIB/Src/stm32f7xx_ll_usb.c ****   }
 462              		.loc 1 244 0
 463 0028 2B68     		ldr	r3, [r5]
 464 002a 43F08003 		orr	r3, r3, #128
 465 002e 2B60     		str	r3, [r5]
 466              	.L37:
 248:HALLIB/Src/stm32f7xx_ll_usb.c **** 
 467              		.loc 1 248 0
 468 0030 2C46     		mov	r4, r5
 469 0032 0023     		movs	r3, #0
 470 0034 C5F8003E 		str	r3, [r5, #3584]
 251:HALLIB/Src/stm32f7xx_ll_usb.c **** 
 471              		.loc 1 251 0
 472 0038 05F50066 		add	r6, r5, #2048
 473 003c D5F80038 		ldr	r3, [r5, #2048]
 474 0040 C5F80038 		str	r3, [r5, #2048]
 253:HALLIB/Src/stm32f7xx_ll_usb.c ****   {
 475              		.loc 1 253 0
 476 0044 0C9B     		ldr	r3, [sp, #48]
 477 0046 012B     		cmp	r3, #1
 478 0048 0BD1     		bne	.L38
 479              	.LVL42:
 255:HALLIB/Src/stm32f7xx_ll_usb.c ****     {
 480              		.loc 1 255 0
 481 004a 099B     		ldr	r3, [sp, #36]
 482 004c 23B9     		cbnz	r3, .L39
 258:HALLIB/Src/stm32f7xx_ll_usb.c ****     }
 483              		.loc 1 258 0
 484 004e 0021     		movs	r1, #0
 485 0050 2846     		mov	r0, r5
 486 0052 FFF7FEFF 		bl	USB_SetDevSpeed
 487              	.LVL43:
 488 0056 16E0     		b	.L40
 489              	.L39:
 263:HALLIB/Src/stm32f7xx_ll_usb.c ****     }
 490              		.loc 1 263 0
 491 0058 0121     		movs	r1, #1
 492 005a 2846     		mov	r0, r5
 493 005c FFF7FEFF 		bl	USB_SetDevSpeed
 494              	.LVL44:
 495 0060 11E0     		b	.L40
 496              	.L38:
 267:HALLIB/Src/stm32f7xx_ll_usb.c ****   {
 497              		.loc 1 267 0
 498 0062 032B     		cmp	r3, #3
 499 0064 0BD1     		bne	.L41
 269:HALLIB/Src/stm32f7xx_ll_usb.c ****     {
 500              		.loc 1 269 0
 501 0066 099B     		ldr	r3, [sp, #36]
 502 0068 23B9     		cbnz	r3, .L42
 272:HALLIB/Src/stm32f7xx_ll_usb.c ****     }
 503              		.loc 1 272 0
 504 006a 0021     		movs	r1, #0
 505 006c 2846     		mov	r0, r5
 506 006e FFF7FEFF 		bl	USB_SetDevSpeed
 507              	.LVL45:
ARM GAS  /tmp/cckeRSC8.s 			page 31


 508 0072 08E0     		b	.L40
 509              	.L42:
 277:HALLIB/Src/stm32f7xx_ll_usb.c ****     }
 510              		.loc 1 277 0
 511 0074 0121     		movs	r1, #1
 512 0076 2846     		mov	r0, r5
 513 0078 FFF7FEFF 		bl	USB_SetDevSpeed
 514              	.LVL46:
 515 007c 03E0     		b	.L40
 516              	.L41:
 284:HALLIB/Src/stm32f7xx_ll_usb.c ****   }
 517              		.loc 1 284 0
 518 007e 0321     		movs	r1, #3
 519 0080 2846     		mov	r0, r5
 520 0082 FFF7FEFF 		bl	USB_SetDevSpeed
 521              	.LVL47:
 522              	.L40:
 288:HALLIB/Src/stm32f7xx_ll_usb.c ****   USB_FlushRxFifo(USBx);
 523              		.loc 1 288 0
 524 0086 1021     		movs	r1, #16
 525 0088 2846     		mov	r0, r5
 526 008a FFF7FEFF 		bl	USB_FlushTxFifo
 527              	.LVL48:
 289:HALLIB/Src/stm32f7xx_ll_usb.c **** 
 528              		.loc 1 289 0
 529 008e 2846     		mov	r0, r5
 530 0090 FFF7FEFF 		bl	USB_FlushRxFifo
 531              	.LVL49:
 292:HALLIB/Src/stm32f7xx_ll_usb.c ****   USBx_DEVICE->DOEPMSK = 0;
 532              		.loc 1 292 0
 533 0094 0023     		movs	r3, #0
 534 0096 3361     		str	r3, [r6, #16]
 293:HALLIB/Src/stm32f7xx_ll_usb.c ****   USBx_DEVICE->DAINT = 0xFFFFFFFF;
 535              		.loc 1 293 0
 536 0098 7361     		str	r3, [r6, #20]
 294:HALLIB/Src/stm32f7xx_ll_usb.c ****   USBx_DEVICE->DAINTMSK = 0;
 537              		.loc 1 294 0
 538 009a 4FF0FF32 		mov	r2, #-1
 539 009e B261     		str	r2, [r6, #24]
 295:HALLIB/Src/stm32f7xx_ll_usb.c **** 
 540              		.loc 1 295 0
 541 00a0 F361     		str	r3, [r6, #28]
 297:HALLIB/Src/stm32f7xx_ll_usb.c ****   {
 542              		.loc 1 297 0
 543 00a2 14E0     		b	.L43
 544              	.LVL50:
 545              	.L46:
 299:HALLIB/Src/stm32f7xx_ll_usb.c ****     {
 546              		.loc 1 299 0
 547 00a4 04EB4312 		add	r2, r4, r3, lsl #5
 548 00a8 02F51061 		add	r1, r2, #2304
 549 00ac D2F80009 		ldr	r0, [r2, #2304]
 550 00b0 0028     		cmp	r0, #0
 551 00b2 04DA     		bge	.L44
 301:HALLIB/Src/stm32f7xx_ll_usb.c ****     }
 552              		.loc 1 301 0
 553 00b4 4FF09040 		mov	r0, #1207959552
ARM GAS  /tmp/cckeRSC8.s 			page 32


 554 00b8 C2F80009 		str	r0, [r2, #2304]
 555 00bc 02E0     		b	.L45
 556              	.L44:
 305:HALLIB/Src/stm32f7xx_ll_usb.c ****     }
 557              		.loc 1 305 0
 558 00be 0020     		movs	r0, #0
 559 00c0 C2F80009 		str	r0, [r2, #2304]
 560              	.L45:
 308:HALLIB/Src/stm32f7xx_ll_usb.c ****     USBx_INEP(i)->DIEPINT  = 0xFF;
 561              		.loc 1 308 0 discriminator 2
 562 00c4 0022     		movs	r2, #0
 563 00c6 0A61     		str	r2, [r1, #16]
 309:HALLIB/Src/stm32f7xx_ll_usb.c ****   }
 564              		.loc 1 309 0 discriminator 2
 565 00c8 FF22     		movs	r2, #255
 566 00ca 8A60     		str	r2, [r1, #8]
 297:HALLIB/Src/stm32f7xx_ll_usb.c ****   {
 567              		.loc 1 297 0 discriminator 2
 568 00cc 0133     		adds	r3, r3, #1
 569              	.LVL51:
 570              	.L43:
 297:HALLIB/Src/stm32f7xx_ll_usb.c ****   {
 571              		.loc 1 297 0 is_stmt 0 discriminator 1
 572 00ce 0799     		ldr	r1, [sp, #28]
 573 00d0 8B42     		cmp	r3, r1
 574 00d2 E7D3     		bcc	.L46
 575 00d4 0023     		movs	r3, #0
 576              	.LVL52:
 577 00d6 16E0     		b	.L47
 578              	.LVL53:
 579              	.L50:
 314:HALLIB/Src/stm32f7xx_ll_usb.c ****     {
 580              		.loc 1 314 0 is_stmt 1
 581 00d8 04EB4312 		add	r2, r4, r3, lsl #5
 582 00dc 02F53060 		add	r0, r2, #2816
 583 00e0 D2F800EB 		ldr	lr, [r2, #2816]
 584 00e4 BEF1000F 		cmp	lr, #0
 585 00e8 04DA     		bge	.L48
 316:HALLIB/Src/stm32f7xx_ll_usb.c ****     }
 586              		.loc 1 316 0
 587 00ea 4FF0904E 		mov	lr, #1207959552
 588 00ee C2F800EB 		str	lr, [r2, #2816]
 589 00f2 03E0     		b	.L49
 590              	.L48:
 320:HALLIB/Src/stm32f7xx_ll_usb.c ****     }
 591              		.loc 1 320 0
 592 00f4 4FF0000E 		mov	lr, #0
 593 00f8 C2F800EB 		str	lr, [r2, #2816]
 594              	.L49:
 323:HALLIB/Src/stm32f7xx_ll_usb.c ****     USBx_OUTEP(i)->DOEPINT  = 0xFF;
 595              		.loc 1 323 0 discriminator 2
 596 00fc 0022     		movs	r2, #0
 597 00fe 0261     		str	r2, [r0, #16]
 324:HALLIB/Src/stm32f7xx_ll_usb.c ****   }
 598              		.loc 1 324 0 discriminator 2
 599 0100 FF22     		movs	r2, #255
 600 0102 8260     		str	r2, [r0, #8]
ARM GAS  /tmp/cckeRSC8.s 			page 33


 312:HALLIB/Src/stm32f7xx_ll_usb.c ****   {
 601              		.loc 1 312 0 discriminator 2
 602 0104 0133     		adds	r3, r3, #1
 603              	.LVL54:
 604              	.L47:
 312:HALLIB/Src/stm32f7xx_ll_usb.c ****   {
 605              		.loc 1 312 0 is_stmt 0 discriminator 1
 606 0106 8B42     		cmp	r3, r1
 607 0108 E6D3     		bcc	.L50
 327:HALLIB/Src/stm32f7xx_ll_usb.c **** 
 608              		.loc 1 327 0 is_stmt 1
 609 010a 3369     		ldr	r3, [r6, #16]
 610              	.LVL55:
 611 010c 23F48073 		bic	r3, r3, #256
 612 0110 3361     		str	r3, [r6, #16]
 329:HALLIB/Src/stm32f7xx_ll_usb.c ****   {
 613              		.loc 1 329 0
 614 0112 0A9B     		ldr	r3, [sp, #40]
 615 0114 012B     		cmp	r3, #1
 616 0116 06D1     		bne	.L51
 332:HALLIB/Src/stm32f7xx_ll_usb.c ****     USBx_DEVICE->DTHRCTL |= (USB_OTG_DTHRCTL_RXTHREN | USB_OTG_DTHRCTL_ISOTHREN | USB_OTG_DTHRCTL_N
 617              		.loc 1 332 0
 618 0118 124A     		ldr	r2, .L56
 619 011a 3263     		str	r2, [r6, #48]
 333:HALLIB/Src/stm32f7xx_ll_usb.c **** 
 620              		.loc 1 333 0
 621 011c 316B     		ldr	r1, [r6, #48]
 622 011e 124A     		ldr	r2, .L56+4
 623 0120 0A43     		orrs	r2, r2, r1
 624 0122 3263     		str	r2, [r6, #48]
 335:HALLIB/Src/stm32f7xx_ll_usb.c ****   }
 625              		.loc 1 335 0
 626 0124 326B     		ldr	r2, [r6, #48]
 627              	.L51:
 339:HALLIB/Src/stm32f7xx_ll_usb.c **** 
 628              		.loc 1 339 0
 629 0126 0022     		movs	r2, #0
 630 0128 AA61     		str	r2, [r5, #24]
 342:HALLIB/Src/stm32f7xx_ll_usb.c **** 
 631              		.loc 1 342 0
 632 012a 6FF08042 		mvn	r2, #1073741824
 633 012e 6A61     		str	r2, [r5, #20]
 345:HALLIB/Src/stm32f7xx_ll_usb.c ****   {
 634              		.loc 1 345 0
 635 0130 1BB9     		cbnz	r3, .L52
 347:HALLIB/Src/stm32f7xx_ll_usb.c ****   }
 636              		.loc 1 347 0
 637 0132 AB69     		ldr	r3, [r5, #24]
 638 0134 43F01003 		orr	r3, r3, #16
 639 0138 AB61     		str	r3, [r5, #24]
 640              	.L52:
 351:HALLIB/Src/stm32f7xx_ll_usb.c ****                     USB_OTG_GINTMSK_ENUMDNEM | USB_OTG_GINTMSK_IEPINT |\
 641              		.loc 1 351 0
 642 013a AA69     		ldr	r2, [r5, #24]
 643 013c 0B4B     		ldr	r3, .L56+8
 644 013e 1343     		orrs	r3, r3, r2
 645 0140 AB61     		str	r3, [r5, #24]
ARM GAS  /tmp/cckeRSC8.s 			page 34


 356:HALLIB/Src/stm32f7xx_ll_usb.c ****   {
 646              		.loc 1 356 0
 647 0142 0D9B     		ldr	r3, [sp, #52]
 648 0144 1BB1     		cbz	r3, .L53
 358:HALLIB/Src/stm32f7xx_ll_usb.c ****   }
 649              		.loc 1 358 0
 650 0146 AB69     		ldr	r3, [r5, #24]
 651 0148 43F00803 		orr	r3, r3, #8
 652 014c AB61     		str	r3, [r5, #24]
 653              	.L53:
 361:HALLIB/Src/stm32f7xx_ll_usb.c ****   {
 654              		.loc 1 361 0
 655 014e 012F     		cmp	r7, #1
 656 0150 03D1     		bne	.L54
 363:HALLIB/Src/stm32f7xx_ll_usb.c ****   }
 657              		.loc 1 363 0
 658 0152 AA69     		ldr	r2, [r5, #24]
 659 0154 064B     		ldr	r3, .L56+12
 660 0156 1343     		orrs	r3, r3, r2
 661 0158 AB61     		str	r3, [r5, #24]
 662              	.L54:
 367:HALLIB/Src/stm32f7xx_ll_usb.c **** 
 663              		.loc 1 367 0
 664 015a 0020     		movs	r0, #0
 665 015c BDE8F840 		pop	{r3, r4, r5, r6, r7, lr}
 666              	.LCFI7:
 667              		.cfi_restore 14
 668              		.cfi_restore 7
 669              		.cfi_restore 6
 670              		.cfi_restore 5
 671              		.cfi_restore 4
 672              		.cfi_restore 3
 673              		.cfi_def_cfa_offset 16
 674              	.LVL56:
 675 0160 04B0     		add	sp, sp, #16
 676              	.LCFI8:
 677              		.cfi_def_cfa_offset 0
 678 0162 7047     		bx	lr
 679              	.L57:
 680              		.align	2
 681              	.L56:
 682 0164 00018000 		.word	8388864
 683 0168 03000100 		.word	65539
 684 016c 00383C80 		.word	-2143537152
 685 0170 04000040 		.word	1073741828
 686              		.cfi_endproc
 687              	.LFE140:
 689              		.section	.text.USB_GetDevSpeed,"ax",%progbits
 690              		.align	2
 691              		.global	USB_GetDevSpeed
 692              		.thumb
 693              		.thumb_func
 695              	USB_GetDevSpeed:
 696              	.LFB144:
 448:HALLIB/Src/stm32f7xx_ll_usb.c ****   uint8_t speed = 0;
 697              		.loc 1 448 0
 698              		.cfi_startproc
ARM GAS  /tmp/cckeRSC8.s 			page 35


 699              		@ args = 0, pretend = 0, frame = 0
 700              		@ frame_needed = 0, uses_anonymous_args = 0
 701              		@ link register save eliminated.
 702              	.LVL57:
 451:HALLIB/Src/stm32f7xx_ll_usb.c ****   {
 703              		.loc 1 451 0
 704 0000 D0F80838 		ldr	r3, [r0, #2056]
 705 0004 00F50060 		add	r0, r0, #2048
 706              	.LVL58:
 707 0008 13F0060F 		tst	r3, #6
 708 000c 10D0     		beq	.L60
 455:HALLIB/Src/stm32f7xx_ll_usb.c ****            ((USBx_DEVICE->DSTS & USB_OTG_DSTS_ENUMSPD) == DSTS_ENUMSPD_FS_PHY_48MHZ))
 709              		.loc 1 455 0
 710 000e 8368     		ldr	r3, [r0, #8]
 711 0010 03F00603 		and	r3, r3, #6
 712 0014 022B     		cmp	r3, #2
 713 0016 0DD0     		beq	.L61
 456:HALLIB/Src/stm32f7xx_ll_usb.c ****   {
 714              		.loc 1 456 0 discriminator 1
 715 0018 8368     		ldr	r3, [r0, #8]
 716 001a 03F00603 		and	r3, r3, #6
 455:HALLIB/Src/stm32f7xx_ll_usb.c ****            ((USBx_DEVICE->DSTS & USB_OTG_DSTS_ENUMSPD) == DSTS_ENUMSPD_FS_PHY_48MHZ))
 717              		.loc 1 455 0 discriminator 1
 718 001e 062B     		cmp	r3, #6
 719 0020 0AD0     		beq	.L62
 460:HALLIB/Src/stm32f7xx_ll_usb.c ****   {
 720              		.loc 1 460 0
 721 0022 8368     		ldr	r3, [r0, #8]
 722 0024 03F00603 		and	r3, r3, #6
 723 0028 042B     		cmp	r3, #4
 724 002a 07D0     		beq	.L63
 449:HALLIB/Src/stm32f7xx_ll_usb.c **** 
 725              		.loc 1 449 0
 726 002c 0020     		movs	r0, #0
 727              	.LVL59:
 728 002e 7047     		bx	lr
 729              	.L60:
 453:HALLIB/Src/stm32f7xx_ll_usb.c ****   }
 730              		.loc 1 453 0
 731 0030 0020     		movs	r0, #0
 732 0032 7047     		bx	lr
 733              	.L61:
 458:HALLIB/Src/stm32f7xx_ll_usb.c ****   }
 734              		.loc 1 458 0
 735 0034 0320     		movs	r0, #3
 736 0036 7047     		bx	lr
 737              	.L62:
 738 0038 0320     		movs	r0, #3
 739 003a 7047     		bx	lr
 740              	.L63:
 462:HALLIB/Src/stm32f7xx_ll_usb.c ****   }
 741              		.loc 1 462 0
 742 003c 0220     		movs	r0, #2
 743              	.LVL60:
 466:HALLIB/Src/stm32f7xx_ll_usb.c **** 
 744              		.loc 1 466 0
 745 003e 7047     		bx	lr
ARM GAS  /tmp/cckeRSC8.s 			page 36


 746              		.cfi_endproc
 747              	.LFE144:
 749              		.section	.text.USB_ActivateEndpoint,"ax",%progbits
 750              		.align	2
 751              		.global	USB_ActivateEndpoint
 752              		.thumb
 753              		.thumb_func
 755              	USB_ActivateEndpoint:
 756              	.LFB145:
 475:HALLIB/Src/stm32f7xx_ll_usb.c ****   if (ep->is_in == 1)
 757              		.loc 1 475 0
 758              		.cfi_startproc
 759              		@ args = 0, pretend = 0, frame = 0
 760              		@ frame_needed = 0, uses_anonymous_args = 0
 761              		@ link register save eliminated.
 762              	.LVL61:
 763 0000 30B4     		push	{r4, r5}
 764              	.LCFI9:
 765              		.cfi_def_cfa_offset 8
 766              		.cfi_offset 4, -8
 767              		.cfi_offset 5, -4
 476:HALLIB/Src/stm32f7xx_ll_usb.c ****   {
 768              		.loc 1 476 0
 769 0002 4B78     		ldrb	r3, [r1, #1]	@ zero_extendqisi2
 770 0004 012B     		cmp	r3, #1
 771 0006 21D1     		bne	.L65
 478:HALLIB/Src/stm32f7xx_ll_usb.c **** 
 772              		.loc 1 478 0
 773 0008 D0F81C48 		ldr	r4, [r0, #2076]
 774 000c 0B78     		ldrb	r3, [r1]	@ zero_extendqisi2
 775 000e 0122     		movs	r2, #1
 776 0010 02FA03F3 		lsl	r3, r2, r3
 777 0014 9BB2     		uxth	r3, r3
 778 0016 2343     		orrs	r3, r3, r4
 779 0018 C0F81C38 		str	r3, [r0, #2076]
 480:HALLIB/Src/stm32f7xx_ll_usb.c ****     {
 780              		.loc 1 480 0
 781 001c 0C78     		ldrb	r4, [r1]	@ zero_extendqisi2
 782 001e 00EB4410 		add	r0, r0, r4, lsl #5
 783              	.LVL62:
 784 0022 D0F80039 		ldr	r3, [r0, #2304]
 785 0026 13F4004F 		tst	r3, #32768
 786 002a 2DD1     		bne	.L66
 482:HALLIB/Src/stm32f7xx_ll_usb.c ****         ((ep->num) << 22 ) | (USB_OTG_DIEPCTL_SD0PID_SEVNFRM) | (USB_OTG_DIEPCTL_USBAEP));
 787              		.loc 1 482 0
 788 002c D0F80059 		ldr	r5, [r0, #2304]
 789 0030 8B68     		ldr	r3, [r1, #8]
 790 0032 C3F30A02 		ubfx	r2, r3, #0, #11
 791 0036 CB78     		ldrb	r3, [r1, #3]	@ zero_extendqisi2
 792 0038 42EA8342 		orr	r2, r2, r3, lsl #18
 793 003c 42EA8453 		orr	r3, r2, r4, lsl #22
 794 0040 2B43     		orrs	r3, r3, r5
 795 0042 134A     		ldr	r2, .L68
 796 0044 1A43     		orrs	r2, r2, r3
 797 0046 C0F80029 		str	r2, [r0, #2304]
 798 004a 1DE0     		b	.L66
 799              	.LVL63:
ARM GAS  /tmp/cckeRSC8.s 			page 37


 800              	.L65:
 489:HALLIB/Src/stm32f7xx_ll_usb.c **** 
 801              		.loc 1 489 0
 802 004c D0F81C28 		ldr	r2, [r0, #2076]
 803 0050 0D78     		ldrb	r5, [r1]	@ zero_extendqisi2
 804 0052 0123     		movs	r3, #1
 805 0054 AB40     		lsls	r3, r3, r5
 806 0056 42EA0343 		orr	r3, r2, r3, lsl #16
 807 005a C0F81C38 		str	r3, [r0, #2076]
 491:HALLIB/Src/stm32f7xx_ll_usb.c ****     {
 808              		.loc 1 491 0
 809 005e 0B78     		ldrb	r3, [r1]	@ zero_extendqisi2
 810 0060 00EB4310 		add	r0, r0, r3, lsl #5
 811              	.LVL64:
 812 0064 D0F8003B 		ldr	r3, [r0, #2816]
 813 0068 13F4004F 		tst	r3, #32768
 814 006c 0CD1     		bne	.L66
 493:HALLIB/Src/stm32f7xx_ll_usb.c ****        (USB_OTG_DIEPCTL_SD0PID_SEVNFRM)| (USB_OTG_DOEPCTL_USBAEP));
 815              		.loc 1 493 0
 816 006e D0F8004B 		ldr	r4, [r0, #2816]
 817 0072 8B68     		ldr	r3, [r1, #8]
 818 0074 C3F30A02 		ubfx	r2, r3, #0, #11
 819 0078 CB78     		ldrb	r3, [r1, #3]	@ zero_extendqisi2
 820 007a 42EA8343 		orr	r3, r2, r3, lsl #18
 821 007e 2343     		orrs	r3, r3, r4
 822 0080 034A     		ldr	r2, .L68
 823 0082 1A43     		orrs	r2, r2, r3
 824 0084 C0F8002B 		str	r2, [r0, #2816]
 825              	.L66:
 498:HALLIB/Src/stm32f7xx_ll_usb.c **** /**
 826              		.loc 1 498 0
 827 0088 0020     		movs	r0, #0
 828 008a 30BC     		pop	{r4, r5}
 829              	.LCFI10:
 830              		.cfi_restore 5
 831              		.cfi_restore 4
 832              		.cfi_def_cfa_offset 0
 833 008c 7047     		bx	lr
 834              	.L69:
 835 008e 00BF     		.align	2
 836              	.L68:
 837 0090 00800010 		.word	268468224
 838              		.cfi_endproc
 839              	.LFE145:
 841              		.section	.text.USB_ActivateDedicatedEndpoint,"ax",%progbits
 842              		.align	2
 843              		.global	USB_ActivateDedicatedEndpoint
 844              		.thumb
 845              		.thumb_func
 847              	USB_ActivateDedicatedEndpoint:
 848              	.LFB146:
 506:HALLIB/Src/stm32f7xx_ll_usb.c ****   static __IO uint32_t debug = 0;
 849              		.loc 1 506 0
 850              		.cfi_startproc
 851              		@ args = 0, pretend = 0, frame = 0
 852              		@ frame_needed = 0, uses_anonymous_args = 0
 853              		@ link register save eliminated.
ARM GAS  /tmp/cckeRSC8.s 			page 38


 854              	.LVL65:
 855 0000 70B4     		push	{r4, r5, r6}
 856              	.LCFI11:
 857              		.cfi_def_cfa_offset 12
 858              		.cfi_offset 4, -12
 859              		.cfi_offset 5, -8
 860              		.cfi_offset 6, -4
 510:HALLIB/Src/stm32f7xx_ll_usb.c ****   {
 861              		.loc 1 510 0
 862 0002 4B78     		ldrb	r3, [r1, #1]	@ zero_extendqisi2
 863 0004 012B     		cmp	r3, #1
 864 0006 2FD1     		bne	.L71
 512:HALLIB/Src/stm32f7xx_ll_usb.c ****     {
 865              		.loc 1 512 0
 866 0008 0D78     		ldrb	r5, [r1]	@ zero_extendqisi2
 867 000a 00EB4514 		add	r4, r0, r5, lsl #5
 868 000e D4F80039 		ldr	r3, [r4, #2304]
 869 0012 13F4004F 		tst	r3, #32768
 870 0016 0ED1     		bne	.L72
 514:HALLIB/Src/stm32f7xx_ll_usb.c ****         ((ep->num) << 22 ) | (USB_OTG_DIEPCTL_SD0PID_SEVNFRM) | (USB_OTG_DIEPCTL_USBAEP));
 871              		.loc 1 514 0
 872 0018 D4F80069 		ldr	r6, [r4, #2304]
 873 001c 8B68     		ldr	r3, [r1, #8]
 874 001e C3F30A02 		ubfx	r2, r3, #0, #11
 875 0022 CB78     		ldrb	r3, [r1, #3]	@ zero_extendqisi2
 876 0024 42EA8342 		orr	r2, r2, r3, lsl #18
 877 0028 42EA8553 		orr	r3, r2, r5, lsl #22
 878 002c 3343     		orrs	r3, r3, r6
 879 002e 2B4A     		ldr	r2, .L76
 880 0030 1A43     		orrs	r2, r2, r3
 881 0032 C4F80029 		str	r2, [r4, #2304]
 882              	.L72:
 519:HALLIB/Src/stm32f7xx_ll_usb.c ****         ((ep->num) << 22 ) | (USB_OTG_DIEPCTL_SD0PID_SEVNFRM) | (USB_OTG_DIEPCTL_USBAEP));
 883              		.loc 1 519 0
 884 0036 8B68     		ldr	r3, [r1, #8]
 885 0038 C3F30A03 		ubfx	r3, r3, #0, #11
 886 003c CA78     		ldrb	r2, [r1, #3]	@ zero_extendqisi2
 887 003e 43EA8243 		orr	r3, r3, r2, lsl #18
 520:HALLIB/Src/stm32f7xx_ll_usb.c **** 
 888              		.loc 1 520 0
 889 0042 0C78     		ldrb	r4, [r1]	@ zero_extendqisi2
 519:HALLIB/Src/stm32f7xx_ll_usb.c ****         ((ep->num) << 22 ) | (USB_OTG_DIEPCTL_SD0PID_SEVNFRM) | (USB_OTG_DIEPCTL_USBAEP));
 890              		.loc 1 519 0
 891 0044 43EA8453 		orr	r3, r3, r4, lsl #22
 892 0048 254D     		ldr	r5, .L76+4
 893 004a 2968     		ldr	r1, [r5]
 894              	.LVL66:
 895 004c 1943     		orrs	r1, r1, r3
 896 004e 234A     		ldr	r2, .L76
 897 0050 0A43     		orrs	r2, r2, r1
 898 0052 2A60     		str	r2, [r5]
 522:HALLIB/Src/stm32f7xx_ll_usb.c ****   }
 899              		.loc 1 522 0
 900 0054 D0F83C18 		ldr	r1, [r0, #2108]
 901 0058 0122     		movs	r2, #1
 902 005a 02FA04F3 		lsl	r3, r2, r4
 903 005e 9BB2     		uxth	r3, r3
ARM GAS  /tmp/cckeRSC8.s 			page 39


 904 0060 0B43     		orrs	r3, r3, r1
 905 0062 C0F83C38 		str	r3, [r0, #2108]
 906 0066 36E0     		b	.L73
 907              	.LVL67:
 908              	.L71:
 526:HALLIB/Src/stm32f7xx_ll_usb.c ****     {
 909              		.loc 1 526 0
 910 0068 0D78     		ldrb	r5, [r1]	@ zero_extendqisi2
 911 006a 00EB4514 		add	r4, r0, r5, lsl #5
 912 006e D4F8003B 		ldr	r3, [r4, #2816]
 913 0072 13F4004F 		tst	r3, #32768
 914 0076 25D1     		bne	.L74
 528:HALLIB/Src/stm32f7xx_ll_usb.c ****         ((ep->num) << 22 ) | (USB_OTG_DOEPCTL_USBAEP));
 915              		.loc 1 528 0
 916 0078 D4F8006B 		ldr	r6, [r4, #2816]
 917 007c 8B68     		ldr	r3, [r1, #8]
 918 007e C3F30A02 		ubfx	r2, r3, #0, #11
 919 0082 CB78     		ldrb	r3, [r1, #3]	@ zero_extendqisi2
 920 0084 42EA8342 		orr	r2, r2, r3, lsl #18
 921 0088 42EA8553 		orr	r3, r2, r5, lsl #22
 922 008c 3343     		orrs	r3, r3, r6
 923 008e 43F40043 		orr	r3, r3, #32768
 924 0092 C4F8003B 		str	r3, [r4, #2816]
 531:HALLIB/Src/stm32f7xx_ll_usb.c ****       debug = (uint32_t )&USBx_OUTEP(ep->num)->DOEPCTL;
 925              		.loc 1 531 0
 926 0096 00F53063 		add	r3, r0, #2816
 927 009a 114C     		ldr	r4, .L76+4
 928 009c 2360     		str	r3, [r4]
 532:HALLIB/Src/stm32f7xx_ll_usb.c ****       debug |= ((ep->maxpacket & USB_OTG_DOEPCTL_MPSIZ ) | (ep->type << 18 ) |\
 929              		.loc 1 532 0
 930 009e 0D78     		ldrb	r5, [r1]	@ zero_extendqisi2
 931 00a0 00EB4512 		add	r2, r0, r5, lsl #5
 932 00a4 02F53062 		add	r2, r2, #2816
 933 00a8 2260     		str	r2, [r4]
 533:HALLIB/Src/stm32f7xx_ll_usb.c ****         ((ep->num) << 22 ) | (USB_OTG_DOEPCTL_USBAEP));
 934              		.loc 1 533 0
 935 00aa 8B68     		ldr	r3, [r1, #8]
 936 00ac C3F30A02 		ubfx	r2, r3, #0, #11
 937 00b0 CB78     		ldrb	r3, [r1, #3]	@ zero_extendqisi2
 938 00b2 42EA8343 		orr	r3, r2, r3, lsl #18
 939 00b6 43EA8553 		orr	r3, r3, r5, lsl #22
 940 00ba 2268     		ldr	r2, [r4]
 941 00bc 1343     		orrs	r3, r3, r2
 942 00be 43F40043 		orr	r3, r3, #32768
 943 00c2 2360     		str	r3, [r4]
 944              	.L74:
 537:HALLIB/Src/stm32f7xx_ll_usb.c ****   }
 945              		.loc 1 537 0
 946 00c4 D0F83C28 		ldr	r2, [r0, #2108]
 947 00c8 0978     		ldrb	r1, [r1]	@ zero_extendqisi2
 948              	.LVL68:
 949 00ca 0123     		movs	r3, #1
 950 00cc 8B40     		lsls	r3, r3, r1
 951 00ce 42EA0343 		orr	r3, r2, r3, lsl #16
 952 00d2 C0F83C38 		str	r3, [r0, #2108]
 953              	.L73:
 541:HALLIB/Src/stm32f7xx_ll_usb.c **** /**
ARM GAS  /tmp/cckeRSC8.s 			page 40


 954              		.loc 1 541 0
 955 00d6 0020     		movs	r0, #0
 956              	.LVL69:
 957 00d8 70BC     		pop	{r4, r5, r6}
 958              	.LCFI12:
 959              		.cfi_restore 6
 960              		.cfi_restore 5
 961              		.cfi_restore 4
 962              		.cfi_def_cfa_offset 0
 963 00da 7047     		bx	lr
 964              	.L77:
 965              		.align	2
 966              	.L76:
 967 00dc 00800010 		.word	268468224
 968 00e0 00000000 		.word	.LANCHOR0
 969              		.cfi_endproc
 970              	.LFE146:
 972              		.section	.text.USB_DeactivateEndpoint,"ax",%progbits
 973              		.align	2
 974              		.global	USB_DeactivateEndpoint
 975              		.thumb
 976              		.thumb_func
 978              	USB_DeactivateEndpoint:
 979              	.LFB147:
 549:HALLIB/Src/stm32f7xx_ll_usb.c ****   /* Read DEPCTLn register */
 980              		.loc 1 549 0
 981              		.cfi_startproc
 982              		@ args = 0, pretend = 0, frame = 0
 983              		@ frame_needed = 0, uses_anonymous_args = 0
 984              		@ link register save eliminated.
 985              	.LVL70:
 986 0000 30B4     		push	{r4, r5}
 987              	.LCFI13:
 988              		.cfi_def_cfa_offset 8
 989              		.cfi_offset 4, -8
 990              		.cfi_offset 5, -4
 551:HALLIB/Src/stm32f7xx_ll_usb.c ****   {
 991              		.loc 1 551 0
 992 0002 4B78     		ldrb	r3, [r1, #1]	@ zero_extendqisi2
 993 0004 012B     		cmp	r3, #1
 994 0006 1CD1     		bne	.L79
 553:HALLIB/Src/stm32f7xx_ll_usb.c ****    USBx_DEVICE->DAINTMSK &= ~(USB_OTG_DAINTMSK_IEPM & ((1 << (ep->num))));
 995              		.loc 1 553 0
 996 0008 D0F83C58 		ldr	r5, [r0, #2108]
 997 000c 0A78     		ldrb	r2, [r1]	@ zero_extendqisi2
 998 000e 03FA02F2 		lsl	r2, r3, r2
 999 0012 92B2     		uxth	r2, r2
 1000 0014 25EA0202 		bic	r2, r5, r2
 1001 0018 C0F83C28 		str	r2, [r0, #2108]
 554:HALLIB/Src/stm32f7xx_ll_usb.c ****    USBx_INEP(ep->num)->DIEPCTL &= ~ USB_OTG_DIEPCTL_USBAEP;
 1002              		.loc 1 554 0
 1003 001c D0F81C28 		ldr	r2, [r0, #2076]
 1004 0020 0D78     		ldrb	r5, [r1]	@ zero_extendqisi2
 1005 0022 AB40     		lsls	r3, r3, r5
 1006 0024 9BB2     		uxth	r3, r3
 1007 0026 22EA0303 		bic	r3, r2, r3
 1008 002a C0F81C38 		str	r3, [r0, #2076]
ARM GAS  /tmp/cckeRSC8.s 			page 41


 555:HALLIB/Src/stm32f7xx_ll_usb.c ****   }
 1009              		.loc 1 555 0
 1010 002e 0B78     		ldrb	r3, [r1]	@ zero_extendqisi2
 1011 0030 00EB4310 		add	r0, r0, r3, lsl #5
 1012              	.LVL71:
 1013 0034 D0F80039 		ldr	r3, [r0, #2304]
 1014 0038 23F40043 		bic	r3, r3, #32768
 1015 003c C0F80039 		str	r3, [r0, #2304]
 1016 0040 1AE0     		b	.L80
 1017              	.LVL72:
 1018              	.L79:
 559:HALLIB/Src/stm32f7xx_ll_usb.c ****      USBx_DEVICE->DAINTMSK &= ~(USB_OTG_DAINTMSK_OEPM & ((1 << (ep->num)) << 16));
 1019              		.loc 1 559 0
 1020 0042 D0F83C58 		ldr	r5, [r0, #2108]
 1021 0046 0C78     		ldrb	r4, [r1]	@ zero_extendqisi2
 1022 0048 0122     		movs	r2, #1
 1023 004a 02FA04F4 		lsl	r4, r2, r4
 1024 004e 25EA0444 		bic	r4, r5, r4, lsl #16
 1025 0052 C0F83C48 		str	r4, [r0, #2108]
 560:HALLIB/Src/stm32f7xx_ll_usb.c ****      USBx_OUTEP(ep->num)->DOEPCTL &= ~USB_OTG_DOEPCTL_USBAEP;
 1026              		.loc 1 560 0
 1027 0056 D0F81C48 		ldr	r4, [r0, #2076]
 1028 005a 0D78     		ldrb	r5, [r1]	@ zero_extendqisi2
 1029 005c AA40     		lsls	r2, r2, r5
 1030 005e 24EA0242 		bic	r2, r4, r2, lsl #16
 1031 0062 C0F81C28 		str	r2, [r0, #2076]
 561:HALLIB/Src/stm32f7xx_ll_usb.c ****   }
 1032              		.loc 1 561 0
 1033 0066 0B78     		ldrb	r3, [r1]	@ zero_extendqisi2
 1034 0068 00EB4310 		add	r0, r0, r3, lsl #5
 1035              	.LVL73:
 1036 006c D0F8003B 		ldr	r3, [r0, #2816]
 1037 0070 23F40043 		bic	r3, r3, #32768
 1038 0074 C0F8003B 		str	r3, [r0, #2816]
 1039              	.L80:
 564:HALLIB/Src/stm32f7xx_ll_usb.c **** 
 1040              		.loc 1 564 0
 1041 0078 0020     		movs	r0, #0
 1042 007a 30BC     		pop	{r4, r5}
 1043              	.LCFI14:
 1044              		.cfi_restore 5
 1045              		.cfi_restore 4
 1046              		.cfi_def_cfa_offset 0
 1047 007c 7047     		bx	lr
 1048              		.cfi_endproc
 1049              	.LFE147:
 1051 007e 00BF     		.section	.text.USB_DeactivateDedicatedEndpoint,"ax",%progbits
 1052              		.align	2
 1053              		.global	USB_DeactivateDedicatedEndpoint
 1054              		.thumb
 1055              		.thumb_func
 1057              	USB_DeactivateDedicatedEndpoint:
 1058              	.LFB148:
 573:HALLIB/Src/stm32f7xx_ll_usb.c ****   /* Read DEPCTLn register */
 1059              		.loc 1 573 0
 1060              		.cfi_startproc
 1061              		@ args = 0, pretend = 0, frame = 0
ARM GAS  /tmp/cckeRSC8.s 			page 42


 1062              		@ frame_needed = 0, uses_anonymous_args = 0
 1063              		@ link register save eliminated.
 1064              	.LVL74:
 575:HALLIB/Src/stm32f7xx_ll_usb.c ****   {
 1065              		.loc 1 575 0
 1066 0000 4B78     		ldrb	r3, [r1, #1]	@ zero_extendqisi2
 1067 0002 012B     		cmp	r3, #1
 1068 0004 15D1     		bne	.L83
 573:HALLIB/Src/stm32f7xx_ll_usb.c ****   /* Read DEPCTLn register */
 1069              		.loc 1 573 0
 1070 0006 10B4     		push	{r4}
 1071              	.LCFI15:
 1072              		.cfi_def_cfa_offset 4
 1073              		.cfi_offset 4, -4
 577:HALLIB/Src/stm32f7xx_ll_usb.c ****    USBx_DEVICE->DAINTMSK &= ~(USB_OTG_DAINTMSK_IEPM & ((1 << (ep->num))));
 1074              		.loc 1 577 0
 1075 0008 0B78     		ldrb	r3, [r1]	@ zero_extendqisi2
 1076 000a 00EB4313 		add	r3, r0, r3, lsl #5
 1077 000e D3F80029 		ldr	r2, [r3, #2304]
 1078 0012 22F40042 		bic	r2, r2, #32768
 1079 0016 C3F80029 		str	r2, [r3, #2304]
 578:HALLIB/Src/stm32f7xx_ll_usb.c ****   }
 1080              		.loc 1 578 0
 1081 001a D0F81C48 		ldr	r4, [r0, #2076]
 1082 001e 0B78     		ldrb	r3, [r1]	@ zero_extendqisi2
 1083 0020 0122     		movs	r2, #1
 1084 0022 02FA03F3 		lsl	r3, r2, r3
 1085 0026 9BB2     		uxth	r3, r3
 1086 0028 24EA0303 		bic	r3, r4, r3
 1087 002c C0F81C38 		str	r3, [r0, #2076]
 1088 0030 13E0     		b	.L84
 1089              	.L83:
 1090              	.LCFI16:
 1091              		.cfi_def_cfa_offset 0
 1092              		.cfi_restore 4
 582:HALLIB/Src/stm32f7xx_ll_usb.c ****      USBx_DEVICE->DAINTMSK &= ~(USB_OTG_DAINTMSK_OEPM & ((1 << (ep->num)) << 16));
 1093              		.loc 1 582 0
 1094 0032 0B78     		ldrb	r3, [r1]	@ zero_extendqisi2
 1095 0034 00EB4313 		add	r3, r0, r3, lsl #5
 1096 0038 D3F8002B 		ldr	r2, [r3, #2816]
 1097 003c 22F40042 		bic	r2, r2, #32768
 1098 0040 C3F8002B 		str	r2, [r3, #2816]
 583:HALLIB/Src/stm32f7xx_ll_usb.c ****   }
 1099              		.loc 1 583 0
 1100 0044 D0F81C28 		ldr	r2, [r0, #2076]
 1101 0048 0978     		ldrb	r1, [r1]	@ zero_extendqisi2
 1102              	.LVL75:
 1103 004a 0123     		movs	r3, #1
 1104 004c 8B40     		lsls	r3, r3, r1
 1105 004e 22EA0343 		bic	r3, r2, r3, lsl #16
 1106 0052 C0F81C38 		str	r3, [r0, #2076]
 586:HALLIB/Src/stm32f7xx_ll_usb.c **** 
 1107              		.loc 1 586 0
 1108 0056 0020     		movs	r0, #0
 1109              	.LVL76:
 1110 0058 7047     		bx	lr
 1111              	.LVL77:
ARM GAS  /tmp/cckeRSC8.s 			page 43


 1112              	.L84:
 1113              	.LCFI17:
 1114              		.cfi_def_cfa_offset 4
 1115              		.cfi_offset 4, -4
 1116 005a 0020     		movs	r0, #0
 1117              	.LVL78:
 1118 005c 5DF8044B 		ldr	r4, [sp], #4
 1119              	.LCFI18:
 1120              		.cfi_restore 4
 1121              		.cfi_def_cfa_offset 0
 1122 0060 7047     		bx	lr
 1123              		.cfi_endproc
 1124              	.LFE148:
 1126 0062 00BF     		.section	.text.USB_EP0StartXfer,"ax",%progbits
 1127              		.align	2
 1128              		.global	USB_EP0StartXfer
 1129              		.thumb
 1130              		.thumb_func
 1132              	USB_EP0StartXfer:
 1133              	.LFB150:
 721:HALLIB/Src/stm32f7xx_ll_usb.c ****   /* IN endpoint */
 1134              		.loc 1 721 0
 1135              		.cfi_startproc
 1136              		@ args = 0, pretend = 0, frame = 0
 1137              		@ frame_needed = 0, uses_anonymous_args = 0
 1138              		@ link register save eliminated.
 1139              	.LVL79:
 1140 0000 30B4     		push	{r4, r5}
 1141              	.LCFI19:
 1142              		.cfi_def_cfa_offset 8
 1143              		.cfi_offset 4, -8
 1144              		.cfi_offset 5, -4
 723:HALLIB/Src/stm32f7xx_ll_usb.c ****   {
 1145              		.loc 1 723 0
 1146 0002 4B78     		ldrb	r3, [r1, #1]	@ zero_extendqisi2
 1147 0004 012B     		cmp	r3, #1
 1148 0006 66D1     		bne	.L88
 726:HALLIB/Src/stm32f7xx_ll_usb.c ****     {
 1149              		.loc 1 726 0
 1150 0008 4B69     		ldr	r3, [r1, #20]
 1151 000a DBB9     		cbnz	r3, .L89
 728:HALLIB/Src/stm32f7xx_ll_usb.c ****       USBx_INEP(ep->num)->DIEPTSIZ |= (USB_OTG_DIEPTSIZ_PKTCNT & (1 << 19)) ;
 1152              		.loc 1 728 0
 1153 000c 0B78     		ldrb	r3, [r1]	@ zero_extendqisi2
 1154 000e 00EB4313 		add	r3, r0, r3, lsl #5
 1155 0012 D3F81059 		ldr	r5, [r3, #2320]
 1156 0016 4F4C     		ldr	r4, .L98
 1157 0018 2C40     		ands	r4, r4, r5
 1158 001a C3F81049 		str	r4, [r3, #2320]
 729:HALLIB/Src/stm32f7xx_ll_usb.c ****       USBx_INEP(ep->num)->DIEPTSIZ &= ~(USB_OTG_DIEPTSIZ_XFRSIZ);
 1159              		.loc 1 729 0
 1160 001e 0B78     		ldrb	r3, [r1]	@ zero_extendqisi2
 1161 0020 00EB4313 		add	r3, r0, r3, lsl #5
 1162 0024 D3F81049 		ldr	r4, [r3, #2320]
 1163 0028 44F40024 		orr	r4, r4, #524288
 1164 002c C3F81049 		str	r4, [r3, #2320]
 730:HALLIB/Src/stm32f7xx_ll_usb.c ****     }
ARM GAS  /tmp/cckeRSC8.s 			page 44


 1165              		.loc 1 730 0
 1166 0030 0B78     		ldrb	r3, [r1]	@ zero_extendqisi2
 1167 0032 00EB4313 		add	r3, r0, r3, lsl #5
 1168 0036 D3F81059 		ldr	r5, [r3, #2320]
 1169 003a 474C     		ldr	r4, .L98+4
 1170 003c 2C40     		ands	r4, r4, r5
 1171 003e C3F81049 		str	r4, [r3, #2320]
 1172 0042 2AE0     		b	.L90
 1173              	.L89:
 739:HALLIB/Src/stm32f7xx_ll_usb.c ****       USBx_INEP(ep->num)->DIEPTSIZ &= ~(USB_OTG_DIEPTSIZ_PKTCNT);
 1174              		.loc 1 739 0
 1175 0044 0B78     		ldrb	r3, [r1]	@ zero_extendqisi2
 1176 0046 00EB4313 		add	r3, r0, r3, lsl #5
 1177 004a D3F81059 		ldr	r5, [r3, #2320]
 1178 004e 424C     		ldr	r4, .L98+4
 1179 0050 2C40     		ands	r4, r4, r5
 1180 0052 C3F81049 		str	r4, [r3, #2320]
 740:HALLIB/Src/stm32f7xx_ll_usb.c **** 
 1181              		.loc 1 740 0
 1182 0056 0B78     		ldrb	r3, [r1]	@ zero_extendqisi2
 1183 0058 00EB4313 		add	r3, r0, r3, lsl #5
 1184 005c D3F81059 		ldr	r5, [r3, #2320]
 1185 0060 3C4C     		ldr	r4, .L98
 1186 0062 2C40     		ands	r4, r4, r5
 1187 0064 C3F81049 		str	r4, [r3, #2320]
 742:HALLIB/Src/stm32f7xx_ll_usb.c ****       {
 1188              		.loc 1 742 0
 1189 0068 4C69     		ldr	r4, [r1, #20]
 1190 006a 8B68     		ldr	r3, [r1, #8]
 1191 006c 9C42     		cmp	r4, r3
 1192 006e 00D9     		bls	.L91
 744:HALLIB/Src/stm32f7xx_ll_usb.c ****       }
 1193              		.loc 1 744 0
 1194 0070 4B61     		str	r3, [r1, #20]
 1195              	.L91:
 746:HALLIB/Src/stm32f7xx_ll_usb.c ****       USBx_INEP(ep->num)->DIEPTSIZ |= (USB_OTG_DIEPTSIZ_XFRSIZ & ep->xfer_len);
 1196              		.loc 1 746 0
 1197 0072 0B78     		ldrb	r3, [r1]	@ zero_extendqisi2
 1198 0074 00EB4313 		add	r3, r0, r3, lsl #5
 1199 0078 D3F81049 		ldr	r4, [r3, #2320]
 1200 007c 44F40024 		orr	r4, r4, #524288
 1201 0080 C3F81049 		str	r4, [r3, #2320]
 747:HALLIB/Src/stm32f7xx_ll_usb.c **** 
 1202              		.loc 1 747 0
 1203 0084 0B78     		ldrb	r3, [r1]	@ zero_extendqisi2
 1204 0086 00EB4313 		add	r3, r0, r3, lsl #5
 1205 008a D3F81059 		ldr	r5, [r3, #2320]
 1206 008e 4C69     		ldr	r4, [r1, #20]
 1207 0090 C4F31204 		ubfx	r4, r4, #0, #19
 1208 0094 2C43     		orrs	r4, r4, r5
 1209 0096 C3F81049 		str	r4, [r3, #2320]
 1210              	.L90:
 751:HALLIB/Src/stm32f7xx_ll_usb.c ****     {
 1211              		.loc 1 751 0
 1212 009a 012A     		cmp	r2, #1
 1213 009c 06D1     		bne	.L92
 753:HALLIB/Src/stm32f7xx_ll_usb.c ****     }
ARM GAS  /tmp/cckeRSC8.s 			page 45


 1214              		.loc 1 753 0
 1215 009e 0B78     		ldrb	r3, [r1]	@ zero_extendqisi2
 1216 00a0 00EB4313 		add	r3, r0, r3, lsl #5
 1217 00a4 0A69     		ldr	r2, [r1, #16]
 1218              	.LVL80:
 1219 00a6 C3F81429 		str	r2, [r3, #2324]
 1220 00aa 0AE0     		b	.L93
 1221              	.LVL81:
 1222              	.L92:
 758:HALLIB/Src/stm32f7xx_ll_usb.c ****       {
 1223              		.loc 1 758 0
 1224 00ac 4B69     		ldr	r3, [r1, #20]
 1225 00ae 43B1     		cbz	r3, .L93
 760:HALLIB/Src/stm32f7xx_ll_usb.c ****       }
 1226              		.loc 1 760 0
 1227 00b0 D0F83458 		ldr	r5, [r0, #2100]
 1228 00b4 0B78     		ldrb	r3, [r1]	@ zero_extendqisi2
 1229 00b6 0122     		movs	r2, #1
 1230              	.LVL82:
 1231 00b8 02FA03F3 		lsl	r3, r2, r3
 1232 00bc 2B43     		orrs	r3, r3, r5
 1233 00be C0F83438 		str	r3, [r0, #2100]
 1234              	.L93:
 765:HALLIB/Src/stm32f7xx_ll_usb.c ****   }
 1235              		.loc 1 765 0
 1236 00c2 0B78     		ldrb	r3, [r1]	@ zero_extendqisi2
 1237 00c4 00EB4310 		add	r0, r0, r3, lsl #5
 1238              	.LVL83:
 1239 00c8 D0F80039 		ldr	r3, [r0, #2304]
 1240 00cc 43F00443 		orr	r3, r3, #-2080374784
 1241 00d0 C0F80039 		str	r3, [r0, #2304]
 1242 00d4 3AE0     		b	.L94
 1243              	.LVL84:
 1244              	.L88:
 773:HALLIB/Src/stm32f7xx_ll_usb.c ****     USBx_OUTEP(ep->num)->DOEPTSIZ &= ~(USB_OTG_DOEPTSIZ_PKTCNT);
 1245              		.loc 1 773 0
 1246 00d6 0B78     		ldrb	r3, [r1]	@ zero_extendqisi2
 1247 00d8 00EB4313 		add	r3, r0, r3, lsl #5
 1248 00dc D3F8105B 		ldr	r5, [r3, #2832]
 1249 00e0 1D4C     		ldr	r4, .L98+4
 1250 00e2 2C40     		ands	r4, r4, r5
 1251 00e4 C3F8104B 		str	r4, [r3, #2832]
 774:HALLIB/Src/stm32f7xx_ll_usb.c **** 
 1252              		.loc 1 774 0
 1253 00e8 0B78     		ldrb	r3, [r1]	@ zero_extendqisi2
 1254 00ea 00EB4313 		add	r3, r0, r3, lsl #5
 1255 00ee D3F8105B 		ldr	r5, [r3, #2832]
 1256 00f2 184C     		ldr	r4, .L98
 1257 00f4 2C40     		ands	r4, r4, r5
 1258 00f6 C3F8104B 		str	r4, [r3, #2832]
 776:HALLIB/Src/stm32f7xx_ll_usb.c ****     {
 1259              		.loc 1 776 0
 1260 00fa 4B69     		ldr	r3, [r1, #20]
 1261 00fc 0BB1     		cbz	r3, .L95
 778:HALLIB/Src/stm32f7xx_ll_usb.c ****     }
 1262              		.loc 1 778 0
 1263 00fe 8B68     		ldr	r3, [r1, #8]
ARM GAS  /tmp/cckeRSC8.s 			page 46


 1264 0100 4B61     		str	r3, [r1, #20]
 1265              	.L95:
 781:HALLIB/Src/stm32f7xx_ll_usb.c ****     USBx_OUTEP(ep->num)->DOEPTSIZ |= (USB_OTG_DOEPTSIZ_XFRSIZ & (ep->maxpacket));
 1266              		.loc 1 781 0
 1267 0102 0B78     		ldrb	r3, [r1]	@ zero_extendqisi2
 1268 0104 00EB4313 		add	r3, r0, r3, lsl #5
 1269 0108 D3F8104B 		ldr	r4, [r3, #2832]
 1270 010c 44F40024 		orr	r4, r4, #524288
 1271 0110 C3F8104B 		str	r4, [r3, #2832]
 782:HALLIB/Src/stm32f7xx_ll_usb.c **** 
 1272              		.loc 1 782 0
 1273 0114 0B78     		ldrb	r3, [r1]	@ zero_extendqisi2
 1274 0116 00EB4313 		add	r3, r0, r3, lsl #5
 1275 011a D3F8105B 		ldr	r5, [r3, #2832]
 1276 011e 8C68     		ldr	r4, [r1, #8]
 1277 0120 C4F31204 		ubfx	r4, r4, #0, #19
 1278 0124 2C43     		orrs	r4, r4, r5
 1279 0126 C3F8104B 		str	r4, [r3, #2832]
 785:HALLIB/Src/stm32f7xx_ll_usb.c ****     {
 1280              		.loc 1 785 0
 1281 012a 012A     		cmp	r2, #1
 1282 012c 05D1     		bne	.L96
 787:HALLIB/Src/stm32f7xx_ll_usb.c ****     }
 1283              		.loc 1 787 0
 1284 012e 0B78     		ldrb	r3, [r1]	@ zero_extendqisi2
 1285 0130 00EB4313 		add	r3, r0, r3, lsl #5
 1286 0134 CA68     		ldr	r2, [r1, #12]
 1287              	.LVL85:
 1288 0136 C3F8142B 		str	r2, [r3, #2836]
 1289              	.L96:
 791:HALLIB/Src/stm32f7xx_ll_usb.c ****   }
 1290              		.loc 1 791 0
 1291 013a 0B78     		ldrb	r3, [r1]	@ zero_extendqisi2
 1292 013c 00EB4310 		add	r0, r0, r3, lsl #5
 1293              	.LVL86:
 1294 0140 D0F8003B 		ldr	r3, [r0, #2816]
 1295 0144 43F00443 		orr	r3, r3, #-2080374784
 1296 0148 C0F8003B 		str	r3, [r0, #2816]
 1297              	.L94:
 794:HALLIB/Src/stm32f7xx_ll_usb.c **** 
 1298              		.loc 1 794 0
 1299 014c 0020     		movs	r0, #0
 1300 014e 30BC     		pop	{r4, r5}
 1301              	.LCFI20:
 1302              		.cfi_restore 5
 1303              		.cfi_restore 4
 1304              		.cfi_def_cfa_offset 0
 1305 0150 7047     		bx	lr
 1306              	.L99:
 1307 0152 00BF     		.align	2
 1308              	.L98:
 1309 0154 FFFF07E0 		.word	-536346625
 1310 0158 0000F8FF 		.word	-524288
 1311              		.cfi_endproc
 1312              	.LFE150:
 1314              		.section	.text.USB_WritePacket,"ax",%progbits
 1315              		.align	2
ARM GAS  /tmp/cckeRSC8.s 			page 47


 1316              		.global	USB_WritePacket
 1317              		.thumb
 1318              		.thumb_func
 1320              	USB_WritePacket:
 1321              	.LFB151:
 810:HALLIB/Src/stm32f7xx_ll_usb.c ****   uint32_t count32b= 0 , i= 0;
 1322              		.loc 1 810 0
 1323              		.cfi_startproc
 1324              		@ args = 4, pretend = 0, frame = 0
 1325              		@ frame_needed = 0, uses_anonymous_args = 0
 1326              		@ link register save eliminated.
 1327              	.LVL87:
 1328 0000 70B4     		push	{r4, r5, r6}
 1329              	.LCFI21:
 1330              		.cfi_def_cfa_offset 12
 1331              		.cfi_offset 4, -12
 1332              		.cfi_offset 5, -8
 1333              		.cfi_offset 6, -4
 1334 0002 9DF80C40 		ldrb	r4, [sp, #12]	@ zero_extendqisi2
 1335              	.LVL88:
 813:HALLIB/Src/stm32f7xx_ll_usb.c ****   {
 1336              		.loc 1 813 0
 1337 0006 6CB9     		cbnz	r4, .L101
 815:HALLIB/Src/stm32f7xx_ll_usb.c ****     for (i = 0; i < count32b; i++, src += 4)
 1338              		.loc 1 815 0
 1339 0008 0333     		adds	r3, r3, #3
 1340              	.LVL89:
 1341 000a 9B10     		asrs	r3, r3, #2
 1342              	.LVL90:
 816:HALLIB/Src/stm32f7xx_ll_usb.c ****     {
 1343              		.loc 1 816 0
 1344 000c 0025     		movs	r5, #0
 1345 000e 07E0     		b	.L103
 1346              	.LVL91:
 1347              	.L104:
 818:HALLIB/Src/stm32f7xx_ll_usb.c ****     }
 1348              		.loc 1 818 0 discriminator 3
 1349 0010 00EB0234 		add	r4, r0, r2, lsl #12
 1350 0014 04F58054 		add	r4, r4, #4096
 1351 0018 51F8046B 		ldr	r6, [r1], #4
 1352              	.LVL92:
 1353 001c 2660     		str	r6, [r4]
 816:HALLIB/Src/stm32f7xx_ll_usb.c ****     {
 1354              		.loc 1 816 0 discriminator 3
 1355 001e 0135     		adds	r5, r5, #1
 1356              	.LVL93:
 1357              	.L103:
 816:HALLIB/Src/stm32f7xx_ll_usb.c ****     {
 1358              		.loc 1 816 0 is_stmt 0 discriminator 1
 1359 0020 9D42     		cmp	r5, r3
 1360 0022 F5D3     		bcc	.L104
 1361              	.LVL94:
 1362              	.L101:
 822:HALLIB/Src/stm32f7xx_ll_usb.c **** 
 1363              		.loc 1 822 0 is_stmt 1
 1364 0024 0020     		movs	r0, #0
 1365              	.LVL95:
ARM GAS  /tmp/cckeRSC8.s 			page 48


 1366 0026 70BC     		pop	{r4, r5, r6}
 1367              	.LCFI22:
 1368              		.cfi_restore 6
 1369              		.cfi_restore 5
 1370              		.cfi_restore 4
 1371              		.cfi_def_cfa_offset 0
 1372              	.LVL96:
 1373 0028 7047     		bx	lr
 1374              		.cfi_endproc
 1375              	.LFE151:
 1377 002a 00BF     		.section	.text.USB_EPStartXfer,"ax",%progbits
 1378              		.align	2
 1379              		.global	USB_EPStartXfer
 1380              		.thumb
 1381              		.thumb_func
 1383              	USB_EPStartXfer:
 1384              	.LFB149:
 599:HALLIB/Src/stm32f7xx_ll_usb.c ****   uint16_t pktcnt = 0;
 1385              		.loc 1 599 0
 1386              		.cfi_startproc
 1387              		@ args = 0, pretend = 0, frame = 0
 1388              		@ frame_needed = 0, uses_anonymous_args = 0
 1389              	.LVL97:
 1390 0000 70B5     		push	{r4, r5, r6, lr}
 1391              	.LCFI23:
 1392              		.cfi_def_cfa_offset 16
 1393              		.cfi_offset 4, -16
 1394              		.cfi_offset 5, -12
 1395              		.cfi_offset 6, -8
 1396              		.cfi_offset 14, -4
 1397 0002 82B0     		sub	sp, sp, #8
 1398              	.LCFI24:
 1399              		.cfi_def_cfa_offset 24
 1400              	.LVL98:
 603:HALLIB/Src/stm32f7xx_ll_usb.c ****   {
 1401              		.loc 1 603 0
 1402 0004 4B78     		ldrb	r3, [r1, #1]	@ zero_extendqisi2
 1403 0006 012B     		cmp	r3, #1
 1404 0008 40F0A680 		bne	.L107
 606:HALLIB/Src/stm32f7xx_ll_usb.c ****     {
 1405              		.loc 1 606 0
 1406 000c 4B69     		ldr	r3, [r1, #20]
 1407 000e DBB9     		cbnz	r3, .L108
 608:HALLIB/Src/stm32f7xx_ll_usb.c ****       USBx_INEP(ep->num)->DIEPTSIZ |= (USB_OTG_DIEPTSIZ_PKTCNT & (1 << 19)) ;
 1408              		.loc 1 608 0
 1409 0010 0B78     		ldrb	r3, [r1]	@ zero_extendqisi2
 1410 0012 00EB4313 		add	r3, r0, r3, lsl #5
 1411 0016 D3F81059 		ldr	r5, [r3, #2320]
 1412 001a 8A4C     		ldr	r4, .L121
 1413 001c 2C40     		ands	r4, r4, r5
 1414 001e C3F81049 		str	r4, [r3, #2320]
 609:HALLIB/Src/stm32f7xx_ll_usb.c ****       USBx_INEP(ep->num)->DIEPTSIZ &= ~(USB_OTG_DIEPTSIZ_XFRSIZ);
 1415              		.loc 1 609 0
 1416 0022 0B78     		ldrb	r3, [r1]	@ zero_extendqisi2
 1417 0024 00EB4313 		add	r3, r0, r3, lsl #5
 1418 0028 D3F81049 		ldr	r4, [r3, #2320]
 1419 002c 44F40024 		orr	r4, r4, #524288
ARM GAS  /tmp/cckeRSC8.s 			page 49


 1420 0030 C3F81049 		str	r4, [r3, #2320]
 610:HALLIB/Src/stm32f7xx_ll_usb.c ****     }
 1421              		.loc 1 610 0
 1422 0034 0B78     		ldrb	r3, [r1]	@ zero_extendqisi2
 1423 0036 00EB4313 		add	r3, r0, r3, lsl #5
 1424 003a D3F81059 		ldr	r5, [r3, #2320]
 1425 003e 824C     		ldr	r4, .L121+4
 1426 0040 2C40     		ands	r4, r4, r5
 1427 0042 C3F81049 		str	r4, [r3, #2320]
 1428 0046 42E0     		b	.L109
 1429              	.L108:
 619:HALLIB/Src/stm32f7xx_ll_usb.c ****       USBx_INEP(ep->num)->DIEPTSIZ &= ~(USB_OTG_DIEPTSIZ_PKTCNT);
 1430              		.loc 1 619 0
 1431 0048 0B78     		ldrb	r3, [r1]	@ zero_extendqisi2
 1432 004a 00EB4313 		add	r3, r0, r3, lsl #5
 1433 004e D3F81059 		ldr	r5, [r3, #2320]
 1434 0052 7D4C     		ldr	r4, .L121+4
 1435 0054 2C40     		ands	r4, r4, r5
 1436 0056 C3F81049 		str	r4, [r3, #2320]
 620:HALLIB/Src/stm32f7xx_ll_usb.c ****       USBx_INEP(ep->num)->DIEPTSIZ |= (USB_OTG_DIEPTSIZ_PKTCNT & (((ep->xfer_len + ep->maxpacket -1
 1437              		.loc 1 620 0
 1438 005a 0B78     		ldrb	r3, [r1]	@ zero_extendqisi2
 1439 005c 00EB4313 		add	r3, r0, r3, lsl #5
 1440 0060 D3F81059 		ldr	r5, [r3, #2320]
 1441 0064 774C     		ldr	r4, .L121
 1442 0066 2C40     		ands	r4, r4, r5
 1443 0068 C3F81049 		str	r4, [r3, #2320]
 621:HALLIB/Src/stm32f7xx_ll_usb.c ****       USBx_INEP(ep->num)->DIEPTSIZ |= (USB_OTG_DIEPTSIZ_XFRSIZ & ep->xfer_len);
 1444              		.loc 1 621 0
 1445 006c 0C78     		ldrb	r4, [r1]	@ zero_extendqisi2
 1446 006e 00EB4414 		add	r4, r0, r4, lsl #5
 1447 0072 D4F81069 		ldr	r6, [r4, #2320]
 1448 0076 4B69     		ldr	r3, [r1, #20]
 1449 0078 8D68     		ldr	r5, [r1, #8]
 1450 007a 2B44     		add	r3, r3, r5
 1451 007c 013B     		subs	r3, r3, #1
 1452 007e B3FBF5F3 		udiv	r3, r3, r5
 1453 0082 724D     		ldr	r5, .L121+8
 1454 0084 05EAC343 		and	r3, r5, r3, lsl #19
 1455 0088 3343     		orrs	r3, r3, r6
 1456 008a C4F81039 		str	r3, [r4, #2320]
 622:HALLIB/Src/stm32f7xx_ll_usb.c **** 
 1457              		.loc 1 622 0
 1458 008e 0B78     		ldrb	r3, [r1]	@ zero_extendqisi2
 1459 0090 00EB4313 		add	r3, r0, r3, lsl #5
 1460 0094 D3F81059 		ldr	r5, [r3, #2320]
 1461 0098 4C69     		ldr	r4, [r1, #20]
 1462 009a C4F31204 		ubfx	r4, r4, #0, #19
 1463 009e 2C43     		orrs	r4, r4, r5
 1464 00a0 C3F81049 		str	r4, [r3, #2320]
 624:HALLIB/Src/stm32f7xx_ll_usb.c ****       {
 1465              		.loc 1 624 0
 1466 00a4 CB78     		ldrb	r3, [r1, #3]	@ zero_extendqisi2
 1467 00a6 012B     		cmp	r3, #1
 1468 00a8 11D1     		bne	.L109
 626:HALLIB/Src/stm32f7xx_ll_usb.c ****         USBx_INEP(ep->num)->DIEPTSIZ |= (USB_OTG_DIEPTSIZ_MULCNT & (1 << 29));
 1469              		.loc 1 626 0
ARM GAS  /tmp/cckeRSC8.s 			page 50


 1470 00aa 0B78     		ldrb	r3, [r1]	@ zero_extendqisi2
 1471 00ac 00EB4313 		add	r3, r0, r3, lsl #5
 1472 00b0 D3F81049 		ldr	r4, [r3, #2320]
 1473 00b4 24F0C044 		bic	r4, r4, #1610612736
 1474 00b8 C3F81049 		str	r4, [r3, #2320]
 627:HALLIB/Src/stm32f7xx_ll_usb.c ****       }
 1475              		.loc 1 627 0
 1476 00bc 0B78     		ldrb	r3, [r1]	@ zero_extendqisi2
 1477 00be 00EB4313 		add	r3, r0, r3, lsl #5
 1478 00c2 D3F81049 		ldr	r4, [r3, #2320]
 1479 00c6 44F00054 		orr	r4, r4, #536870912
 1480 00ca C3F81049 		str	r4, [r3, #2320]
 1481              	.L109:
 631:HALLIB/Src/stm32f7xx_ll_usb.c ****     {
 1482              		.loc 1 631 0
 1483 00ce 012A     		cmp	r2, #1
 1484 00d0 06D1     		bne	.L110
 633:HALLIB/Src/stm32f7xx_ll_usb.c ****     }
 1485              		.loc 1 633 0
 1486 00d2 0B78     		ldrb	r3, [r1]	@ zero_extendqisi2
 1487 00d4 00EB4313 		add	r3, r0, r3, lsl #5
 1488 00d8 0C69     		ldr	r4, [r1, #16]
 1489 00da C3F81449 		str	r4, [r3, #2324]
 1490 00de 0CE0     		b	.L111
 1491              	.L110:
 637:HALLIB/Src/stm32f7xx_ll_usb.c ****       {
 1492              		.loc 1 637 0
 1493 00e0 CB78     		ldrb	r3, [r1, #3]	@ zero_extendqisi2
 1494 00e2 012B     		cmp	r3, #1
 1495 00e4 09D0     		beq	.L111
 640:HALLIB/Src/stm32f7xx_ll_usb.c ****         {
 1496              		.loc 1 640 0
 1497 00e6 4B69     		ldr	r3, [r1, #20]
 1498 00e8 3BB1     		cbz	r3, .L111
 642:HALLIB/Src/stm32f7xx_ll_usb.c ****         }
 1499              		.loc 1 642 0
 1500 00ea D0F83448 		ldr	r4, [r0, #2100]
 1501 00ee 0E78     		ldrb	r6, [r1]	@ zero_extendqisi2
 1502 00f0 0123     		movs	r3, #1
 1503 00f2 B340     		lsls	r3, r3, r6
 1504 00f4 2343     		orrs	r3, r3, r4
 1505 00f6 C0F83438 		str	r3, [r0, #2100]
 1506              	.L111:
 647:HALLIB/Src/stm32f7xx_ll_usb.c ****     {
 1507              		.loc 1 647 0
 1508 00fa CB78     		ldrb	r3, [r1, #3]	@ zero_extendqisi2
 1509 00fc 012B     		cmp	r3, #1
 1510 00fe 17D1     		bne	.L112
 649:HALLIB/Src/stm32f7xx_ll_usb.c ****       {
 1511              		.loc 1 649 0
 1512 0100 D0F80838 		ldr	r3, [r0, #2056]
 1513 0104 13F4807F 		tst	r3, #256
 1514 0108 09D1     		bne	.L113
 651:HALLIB/Src/stm32f7xx_ll_usb.c ****       }
 1515              		.loc 1 651 0
 1516 010a 0B78     		ldrb	r3, [r1]	@ zero_extendqisi2
 1517 010c 00EB4313 		add	r3, r0, r3, lsl #5
ARM GAS  /tmp/cckeRSC8.s 			page 51


 1518 0110 D3F80049 		ldr	r4, [r3, #2304]
 1519 0114 44F00054 		orr	r4, r4, #536870912
 1520 0118 C3F80049 		str	r4, [r3, #2304]
 1521 011c 08E0     		b	.L112
 1522              	.L113:
 655:HALLIB/Src/stm32f7xx_ll_usb.c ****       }
 1523              		.loc 1 655 0
 1524 011e 0B78     		ldrb	r3, [r1]	@ zero_extendqisi2
 1525 0120 00EB4313 		add	r3, r0, r3, lsl #5
 1526 0124 D3F80049 		ldr	r4, [r3, #2304]
 1527 0128 44F08054 		orr	r4, r4, #268435456
 1528 012c C3F80049 		str	r4, [r3, #2304]
 1529              	.L112:
 660:HALLIB/Src/stm32f7xx_ll_usb.c **** 
 1530              		.loc 1 660 0
 1531 0130 0B78     		ldrb	r3, [r1]	@ zero_extendqisi2
 1532 0132 00EB4313 		add	r3, r0, r3, lsl #5
 1533 0136 D3F80049 		ldr	r4, [r3, #2304]
 1534 013a 44F00444 		orr	r4, r4, #-2080374784
 1535 013e C3F80049 		str	r4, [r3, #2304]
 662:HALLIB/Src/stm32f7xx_ll_usb.c ****     {
 1536              		.loc 1 662 0
 1537 0142 CB78     		ldrb	r3, [r1, #3]	@ zero_extendqisi2
 1538 0144 012B     		cmp	r3, #1
 1539 0146 7AD1     		bne	.L114
 1540 0148 1446     		mov	r4, r2
 664:HALLIB/Src/stm32f7xx_ll_usb.c ****     }
 1541              		.loc 1 664 0
 1542 014a 8B8A     		ldrh	r3, [r1, #20]
 1543 014c 0A78     		ldrb	r2, [r1]	@ zero_extendqisi2
 1544              	.LVL99:
 1545 014e C968     		ldr	r1, [r1, #12]
 1546              	.LVL100:
 1547 0150 0094     		str	r4, [sp]
 1548 0152 FFF7FEFF 		bl	USB_WritePacket
 1549              	.LVL101:
 1550 0156 72E0     		b	.L114
 1551              	.LVL102:
 1552              	.L107:
 673:HALLIB/Src/stm32f7xx_ll_usb.c ****     USBx_OUTEP(ep->num)->DOEPTSIZ &= ~(USB_OTG_DOEPTSIZ_PKTCNT);
 1553              		.loc 1 673 0
 1554 0158 0B78     		ldrb	r3, [r1]	@ zero_extendqisi2
 1555 015a 00EB4313 		add	r3, r0, r3, lsl #5
 1556 015e D3F8105B 		ldr	r5, [r3, #2832]
 1557 0162 394C     		ldr	r4, .L121+4
 1558 0164 2C40     		ands	r4, r4, r5
 1559 0166 C3F8104B 		str	r4, [r3, #2832]
 674:HALLIB/Src/stm32f7xx_ll_usb.c **** 
 1560              		.loc 1 674 0
 1561 016a 0B78     		ldrb	r3, [r1]	@ zero_extendqisi2
 1562 016c 00EB4313 		add	r3, r0, r3, lsl #5
 1563 0170 D3F8105B 		ldr	r5, [r3, #2832]
 1564 0174 334C     		ldr	r4, .L121
 1565 0176 2C40     		ands	r4, r4, r5
 1566 0178 C3F8104B 		str	r4, [r3, #2832]
 676:HALLIB/Src/stm32f7xx_ll_usb.c ****     {
 1567              		.loc 1 676 0
ARM GAS  /tmp/cckeRSC8.s 			page 52


 1568 017c 4B69     		ldr	r3, [r1, #20]
 1569 017e A3B9     		cbnz	r3, .L115
 678:HALLIB/Src/stm32f7xx_ll_usb.c ****       USBx_OUTEP(ep->num)->DOEPTSIZ |= (USB_OTG_DOEPTSIZ_PKTCNT & (1 << 19)) ;
 1570              		.loc 1 678 0
 1571 0180 0B78     		ldrb	r3, [r1]	@ zero_extendqisi2
 1572 0182 00EB4313 		add	r3, r0, r3, lsl #5
 1573 0186 D3F8105B 		ldr	r5, [r3, #2832]
 1574 018a 8C68     		ldr	r4, [r1, #8]
 1575 018c C4F31204 		ubfx	r4, r4, #0, #19
 1576 0190 2C43     		orrs	r4, r4, r5
 1577 0192 C3F8104B 		str	r4, [r3, #2832]
 679:HALLIB/Src/stm32f7xx_ll_usb.c ****     }
 1578              		.loc 1 679 0
 1579 0196 0B78     		ldrb	r3, [r1]	@ zero_extendqisi2
 1580 0198 00EB4313 		add	r3, r0, r3, lsl #5
 1581 019c D3F8104B 		ldr	r4, [r3, #2832]
 1582 01a0 44F40024 		orr	r4, r4, #524288
 1583 01a4 C3F8104B 		str	r4, [r3, #2832]
 1584 01a8 1DE0     		b	.L116
 1585              	.L115:
 683:HALLIB/Src/stm32f7xx_ll_usb.c ****       USBx_OUTEP(ep->num)->DOEPTSIZ |= (USB_OTG_DOEPTSIZ_PKTCNT & (pktcnt << 19));
 1586              		.loc 1 683 0
 1587 01aa 8C68     		ldr	r4, [r1, #8]
 1588 01ac 2344     		add	r3, r3, r4
 1589 01ae 013B     		subs	r3, r3, #1
 1590 01b0 B3FBF4F3 		udiv	r3, r3, r4
 1591              	.LVL103:
 684:HALLIB/Src/stm32f7xx_ll_usb.c ****       USBx_OUTEP(ep->num)->DOEPTSIZ |= (USB_OTG_DOEPTSIZ_XFRSIZ & (ep->maxpacket * pktcnt));
 1592              		.loc 1 684 0
 1593 01b4 0C78     		ldrb	r4, [r1]	@ zero_extendqisi2
 1594 01b6 00EB4414 		add	r4, r0, r4, lsl #5
 1595 01ba D4F8106B 		ldr	r6, [r4, #2832]
 1596 01be 234D     		ldr	r5, .L121+8
 1597 01c0 05EAC345 		and	r5, r5, r3, lsl #19
 1598 01c4 3543     		orrs	r5, r5, r6
 1599 01c6 C4F8105B 		str	r5, [r4, #2832]
 685:HALLIB/Src/stm32f7xx_ll_usb.c ****     }
 1600              		.loc 1 685 0
 1601 01ca 0D78     		ldrb	r5, [r1]	@ zero_extendqisi2
 1602 01cc 00EB4515 		add	r5, r0, r5, lsl #5
 1603 01d0 D5F8106B 		ldr	r6, [r5, #2832]
 1604 01d4 8C68     		ldr	r4, [r1, #8]
 1605 01d6 9BB2     		uxth	r3, r3
 1606 01d8 04FB03F4 		mul	r4, r4, r3
 1607 01dc C4F31204 		ubfx	r4, r4, #0, #19
 1608 01e0 3443     		orrs	r4, r4, r6
 1609 01e2 C5F8104B 		str	r4, [r5, #2832]
 1610              	.LVL104:
 1611              	.L116:
 688:HALLIB/Src/stm32f7xx_ll_usb.c ****     {
 1612              		.loc 1 688 0
 1613 01e6 012A     		cmp	r2, #1
 1614 01e8 05D1     		bne	.L117
 690:HALLIB/Src/stm32f7xx_ll_usb.c ****     }
 1615              		.loc 1 690 0
 1616 01ea 0B78     		ldrb	r3, [r1]	@ zero_extendqisi2
 1617 01ec 00EB4313 		add	r3, r0, r3, lsl #5
ARM GAS  /tmp/cckeRSC8.s 			page 53


 1618 01f0 CA68     		ldr	r2, [r1, #12]
 1619              	.LVL105:
 1620 01f2 C3F8142B 		str	r2, [r3, #2836]
 1621              	.L117:
 693:HALLIB/Src/stm32f7xx_ll_usb.c ****     {
 1622              		.loc 1 693 0
 1623 01f6 CB78     		ldrb	r3, [r1, #3]	@ zero_extendqisi2
 1624 01f8 012B     		cmp	r3, #1
 1625 01fa 17D1     		bne	.L118
 695:HALLIB/Src/stm32f7xx_ll_usb.c ****       {
 1626              		.loc 1 695 0
 1627 01fc D0F80838 		ldr	r3, [r0, #2056]
 1628 0200 13F4807F 		tst	r3, #256
 1629 0204 09D1     		bne	.L119
 697:HALLIB/Src/stm32f7xx_ll_usb.c ****       }
 1630              		.loc 1 697 0
 1631 0206 0B78     		ldrb	r3, [r1]	@ zero_extendqisi2
 1632 0208 00EB4313 		add	r3, r0, r3, lsl #5
 1633 020c D3F8002B 		ldr	r2, [r3, #2816]
 1634 0210 42F00052 		orr	r2, r2, #536870912
 1635 0214 C3F8002B 		str	r2, [r3, #2816]
 1636 0218 08E0     		b	.L118
 1637              	.L119:
 701:HALLIB/Src/stm32f7xx_ll_usb.c ****       }
 1638              		.loc 1 701 0
 1639 021a 0B78     		ldrb	r3, [r1]	@ zero_extendqisi2
 1640 021c 00EB4313 		add	r3, r0, r3, lsl #5
 1641 0220 D3F8002B 		ldr	r2, [r3, #2816]
 1642 0224 42F08052 		orr	r2, r2, #268435456
 1643 0228 C3F8002B 		str	r2, [r3, #2816]
 1644              	.L118:
 705:HALLIB/Src/stm32f7xx_ll_usb.c ****   }
 1645              		.loc 1 705 0
 1646 022c 0B78     		ldrb	r3, [r1]	@ zero_extendqisi2
 1647 022e 00EB4310 		add	r0, r0, r3, lsl #5
 1648              	.LVL106:
 1649 0232 D0F8003B 		ldr	r3, [r0, #2816]
 1650 0236 43F00443 		orr	r3, r3, #-2080374784
 1651 023a C0F8003B 		str	r3, [r0, #2816]
 1652              	.LVL107:
 1653              	.L114:
 708:HALLIB/Src/stm32f7xx_ll_usb.c **** 
 1654              		.loc 1 708 0
 1655 023e 0020     		movs	r0, #0
 1656 0240 02B0     		add	sp, sp, #8
 1657              	.LCFI25:
 1658              		.cfi_def_cfa_offset 16
 1659              		@ sp needed
 1660 0242 70BD     		pop	{r4, r5, r6, pc}
 1661              	.L122:
 1662              		.align	2
 1663              	.L121:
 1664 0244 FFFF07E0 		.word	-536346625
 1665 0248 0000F8FF 		.word	-524288
 1666 024c 0000F81F 		.word	536346624
 1667              		.cfi_endproc
 1668              	.LFE149:
ARM GAS  /tmp/cckeRSC8.s 			page 54


 1670              		.section	.text.USB_ReadPacket,"ax",%progbits
 1671              		.align	2
 1672              		.global	USB_ReadPacket
 1673              		.thumb
 1674              		.thumb_func
 1676              	USB_ReadPacket:
 1677              	.LFB152:
 838:HALLIB/Src/stm32f7xx_ll_usb.c ****   uint32_t i=0;
 1678              		.loc 1 838 0
 1679              		.cfi_startproc
 1680              		@ args = 0, pretend = 0, frame = 0
 1681              		@ frame_needed = 0, uses_anonymous_args = 0
 1682              		@ link register save eliminated.
 1683              	.LVL108:
 1684 0000 10B4     		push	{r4}
 1685              	.LCFI26:
 1686              		.cfi_def_cfa_offset 4
 1687              		.cfi_offset 4, -4
 1688              	.LVL109:
 840:HALLIB/Src/stm32f7xx_ll_usb.c **** 
 1689              		.loc 1 840 0
 1690 0002 0332     		adds	r2, r2, #3
 1691              	.LVL110:
 1692 0004 9210     		asrs	r2, r2, #2
 1693              	.LVL111:
 842:HALLIB/Src/stm32f7xx_ll_usb.c ****   {
 1694              		.loc 1 842 0
 1695 0006 0023     		movs	r3, #0
 1696 0008 05E0     		b	.L125
 1697              	.LVL112:
 1698              	.L126:
 844:HALLIB/Src/stm32f7xx_ll_usb.c **** 
 1699              		.loc 1 844 0 discriminator 3
 1700 000a 00F58054 		add	r4, r0, #4096
 1701 000e 2468     		ldr	r4, [r4]
 1702 0010 41F8044B 		str	r4, [r1], #4
 1703              	.LVL113:
 842:HALLIB/Src/stm32f7xx_ll_usb.c ****   {
 1704              		.loc 1 842 0 discriminator 3
 1705 0014 0133     		adds	r3, r3, #1
 1706              	.LVL114:
 1707              	.L125:
 842:HALLIB/Src/stm32f7xx_ll_usb.c ****   {
 1708              		.loc 1 842 0 is_stmt 0 discriminator 1
 1709 0016 9342     		cmp	r3, r2
 1710 0018 F7D3     		bcc	.L126
 848:HALLIB/Src/stm32f7xx_ll_usb.c **** 
 1711              		.loc 1 848 0 is_stmt 1
 1712 001a 0846     		mov	r0, r1
 1713              	.LVL115:
 1714 001c 5DF8044B 		ldr	r4, [sp], #4
 1715              	.LCFI27:
 1716              		.cfi_restore 4
 1717              		.cfi_def_cfa_offset 0
 1718 0020 7047     		bx	lr
 1719              		.cfi_endproc
 1720              	.LFE152:
ARM GAS  /tmp/cckeRSC8.s 			page 55


 1722 0022 00BF     		.section	.text.USB_EPSetStall,"ax",%progbits
 1723              		.align	2
 1724              		.global	USB_EPSetStall
 1725              		.thumb
 1726              		.thumb_func
 1728              	USB_EPSetStall:
 1729              	.LFB153:
 857:HALLIB/Src/stm32f7xx_ll_usb.c ****   if (ep->is_in == 1)
 1730              		.loc 1 857 0
 1731              		.cfi_startproc
 1732              		@ args = 0, pretend = 0, frame = 0
 1733              		@ frame_needed = 0, uses_anonymous_args = 0
 1734              		@ link register save eliminated.
 1735              	.LVL116:
 858:HALLIB/Src/stm32f7xx_ll_usb.c ****   {
 1736              		.loc 1 858 0
 1737 0000 4B78     		ldrb	r3, [r1, #1]	@ zero_extendqisi2
 1738 0002 012B     		cmp	r3, #1
 1739 0004 16D1     		bne	.L129
 860:HALLIB/Src/stm32f7xx_ll_usb.c ****     {
 1740              		.loc 1 860 0
 1741 0006 0B78     		ldrb	r3, [r1]	@ zero_extendqisi2
 1742 0008 00EB4313 		add	r3, r0, r3, lsl #5
 1743 000c D3F80029 		ldr	r2, [r3, #2304]
 1744 0010 002A     		cmp	r2, #0
 1745 0012 05DB     		blt	.L130
 862:HALLIB/Src/stm32f7xx_ll_usb.c ****     }
 1746              		.loc 1 862 0
 1747 0014 D3F80029 		ldr	r2, [r3, #2304]
 1748 0018 22F08042 		bic	r2, r2, #1073741824
 1749 001c C3F80029 		str	r2, [r3, #2304]
 1750              	.L130:
 864:HALLIB/Src/stm32f7xx_ll_usb.c ****   }
 1751              		.loc 1 864 0
 1752 0020 0B78     		ldrb	r3, [r1]	@ zero_extendqisi2
 1753 0022 00EB4310 		add	r0, r0, r3, lsl #5
 1754              	.LVL117:
 1755 0026 D0F80039 		ldr	r3, [r0, #2304]
 1756 002a 43F40013 		orr	r3, r3, #2097152
 1757 002e C0F80039 		str	r3, [r0, #2304]
 1758 0032 15E0     		b	.L131
 1759              	.LVL118:
 1760              	.L129:
 868:HALLIB/Src/stm32f7xx_ll_usb.c ****     {
 1761              		.loc 1 868 0
 1762 0034 0B78     		ldrb	r3, [r1]	@ zero_extendqisi2
 1763 0036 00EB4313 		add	r3, r0, r3, lsl #5
 1764 003a D3F8002B 		ldr	r2, [r3, #2816]
 1765 003e 002A     		cmp	r2, #0
 1766 0040 05DB     		blt	.L132
 870:HALLIB/Src/stm32f7xx_ll_usb.c ****     }
 1767              		.loc 1 870 0
 1768 0042 D3F8002B 		ldr	r2, [r3, #2816]
 1769 0046 22F08042 		bic	r2, r2, #1073741824
 1770 004a C3F8002B 		str	r2, [r3, #2816]
 1771              	.L132:
 872:HALLIB/Src/stm32f7xx_ll_usb.c ****   }
ARM GAS  /tmp/cckeRSC8.s 			page 56


 1772              		.loc 1 872 0
 1773 004e 0B78     		ldrb	r3, [r1]	@ zero_extendqisi2
 1774 0050 00EB4310 		add	r0, r0, r3, lsl #5
 1775              	.LVL119:
 1776 0054 D0F8003B 		ldr	r3, [r0, #2816]
 1777 0058 43F40013 		orr	r3, r3, #2097152
 1778 005c C0F8003B 		str	r3, [r0, #2816]
 1779              	.L131:
 875:HALLIB/Src/stm32f7xx_ll_usb.c **** 
 1780              		.loc 1 875 0
 1781 0060 0020     		movs	r0, #0
 1782 0062 7047     		bx	lr
 1783              		.cfi_endproc
 1784              	.LFE153:
 1786              		.section	.text.USB_EPClearStall,"ax",%progbits
 1787              		.align	2
 1788              		.global	USB_EPClearStall
 1789              		.thumb
 1790              		.thumb_func
 1792              	USB_EPClearStall:
 1793              	.LFB154:
 885:HALLIB/Src/stm32f7xx_ll_usb.c ****   if (ep->is_in == 1)
 1794              		.loc 1 885 0
 1795              		.cfi_startproc
 1796              		@ args = 0, pretend = 0, frame = 0
 1797              		@ frame_needed = 0, uses_anonymous_args = 0
 1798              		@ link register save eliminated.
 1799              	.LVL120:
 886:HALLIB/Src/stm32f7xx_ll_usb.c ****   {
 1800              		.loc 1 886 0
 1801 0000 4B78     		ldrb	r3, [r1, #1]	@ zero_extendqisi2
 1802 0002 012B     		cmp	r3, #1
 1803 0004 17D1     		bne	.L134
 888:HALLIB/Src/stm32f7xx_ll_usb.c ****     if (ep->type == EP_TYPE_INTR || ep->type == EP_TYPE_BULK)
 1804              		.loc 1 888 0
 1805 0006 0B78     		ldrb	r3, [r1]	@ zero_extendqisi2
 1806 0008 00EB4313 		add	r3, r0, r3, lsl #5
 1807 000c D3F80029 		ldr	r2, [r3, #2304]
 1808 0010 22F40012 		bic	r2, r2, #2097152
 1809 0014 C3F80029 		str	r2, [r3, #2304]
 889:HALLIB/Src/stm32f7xx_ll_usb.c ****     {
 1810              		.loc 1 889 0
 1811 0018 CB78     		ldrb	r3, [r1, #3]	@ zero_extendqisi2
 1812 001a 023B     		subs	r3, r3, #2
 1813 001c DBB2     		uxtb	r3, r3
 1814 001e 012B     		cmp	r3, #1
 1815 0020 20D8     		bhi	.L135
 891:HALLIB/Src/stm32f7xx_ll_usb.c ****     }
 1816              		.loc 1 891 0
 1817 0022 0B78     		ldrb	r3, [r1]	@ zero_extendqisi2
 1818 0024 00EB4310 		add	r0, r0, r3, lsl #5
 1819              	.LVL121:
 1820 0028 D0F80039 		ldr	r3, [r0, #2304]
 1821 002c 43F08053 		orr	r3, r3, #268435456
 1822 0030 C0F80039 		str	r3, [r0, #2304]
 1823 0034 16E0     		b	.L135
 1824              	.LVL122:
ARM GAS  /tmp/cckeRSC8.s 			page 57


 1825              	.L134:
 896:HALLIB/Src/stm32f7xx_ll_usb.c ****     if (ep->type == EP_TYPE_INTR || ep->type == EP_TYPE_BULK)
 1826              		.loc 1 896 0
 1827 0036 0B78     		ldrb	r3, [r1]	@ zero_extendqisi2
 1828 0038 00EB4313 		add	r3, r0, r3, lsl #5
 1829 003c D3F8002B 		ldr	r2, [r3, #2816]
 1830 0040 22F40012 		bic	r2, r2, #2097152
 1831 0044 C3F8002B 		str	r2, [r3, #2816]
 897:HALLIB/Src/stm32f7xx_ll_usb.c ****     {
 1832              		.loc 1 897 0
 1833 0048 CB78     		ldrb	r3, [r1, #3]	@ zero_extendqisi2
 1834 004a 023B     		subs	r3, r3, #2
 1835 004c DBB2     		uxtb	r3, r3
 1836 004e 012B     		cmp	r3, #1
 1837 0050 08D8     		bhi	.L135
 899:HALLIB/Src/stm32f7xx_ll_usb.c ****     }
 1838              		.loc 1 899 0
 1839 0052 0B78     		ldrb	r3, [r1]	@ zero_extendqisi2
 1840 0054 00EB4310 		add	r0, r0, r3, lsl #5
 1841              	.LVL123:
 1842 0058 D0F8003B 		ldr	r3, [r0, #2816]
 1843 005c 43F08053 		orr	r3, r3, #268435456
 1844 0060 C0F8003B 		str	r3, [r0, #2816]
 1845              	.L135:
 903:HALLIB/Src/stm32f7xx_ll_usb.c **** 
 1846              		.loc 1 903 0
 1847 0064 0020     		movs	r0, #0
 1848 0066 7047     		bx	lr
 1849              		.cfi_endproc
 1850              	.LFE154:
 1852              		.section	.text.USB_StopDevice,"ax",%progbits
 1853              		.align	2
 1854              		.global	USB_StopDevice
 1855              		.thumb
 1856              		.thumb_func
 1858              	USB_StopDevice:
 1859              	.LFB155:
 911:HALLIB/Src/stm32f7xx_ll_usb.c ****   uint32_t i;
 1860              		.loc 1 911 0
 1861              		.cfi_startproc
 1862              		@ args = 0, pretend = 0, frame = 0
 1863              		@ frame_needed = 0, uses_anonymous_args = 0
 1864              	.LVL124:
 1865 0000 38B5     		push	{r3, r4, r5, lr}
 1866              	.LCFI28:
 1867              		.cfi_def_cfa_offset 16
 1868              		.cfi_offset 3, -16
 1869              		.cfi_offset 4, -12
 1870              		.cfi_offset 5, -8
 1871              		.cfi_offset 14, -4
 1872 0002 0446     		mov	r4, r0
 1873              	.LVL125:
 915:HALLIB/Src/stm32f7xx_ll_usb.c ****   {
 1874              		.loc 1 915 0
 1875 0004 0022     		movs	r2, #0
 1876 0006 07E0     		b	.L137
 1877              	.LVL126:
ARM GAS  /tmp/cckeRSC8.s 			page 58


 1878              	.L138:
 917:HALLIB/Src/stm32f7xx_ll_usb.c ****     USBx_OUTEP(i)->DOEPINT  = 0xFF;
 1879              		.loc 1 917 0 discriminator 3
 1880 0008 04EB4213 		add	r3, r4, r2, lsl #5
 1881 000c FF21     		movs	r1, #255
 1882 000e C3F80819 		str	r1, [r3, #2312]
 918:HALLIB/Src/stm32f7xx_ll_usb.c ****   }
 1883              		.loc 1 918 0 discriminator 3
 1884 0012 C3F8081B 		str	r1, [r3, #2824]
 915:HALLIB/Src/stm32f7xx_ll_usb.c ****   {
 1885              		.loc 1 915 0 discriminator 3
 1886 0016 0132     		adds	r2, r2, #1
 1887              	.LVL127:
 1888              	.L137:
 915:HALLIB/Src/stm32f7xx_ll_usb.c ****   {
 1889              		.loc 1 915 0 is_stmt 0 discriminator 1
 1890 0018 0E2A     		cmp	r2, #14
 1891 001a F5D9     		bls	.L138
 920:HALLIB/Src/stm32f7xx_ll_usb.c **** 
 1892              		.loc 1 920 0 is_stmt 1
 1893 001c 4FF0FF32 		mov	r2, #-1
 1894              	.LVL128:
 1895 0020 C4F81828 		str	r2, [r4, #2072]
 923:HALLIB/Src/stm32f7xx_ll_usb.c ****   USBx_DEVICE->DOEPMSK  = 0;
 1896              		.loc 1 923 0
 1897 0024 0025     		movs	r5, #0
 1898 0026 C4F81058 		str	r5, [r4, #2064]
 924:HALLIB/Src/stm32f7xx_ll_usb.c ****   USBx_DEVICE->DAINTMSK = 0;
 1899              		.loc 1 924 0
 1900 002a C4F81458 		str	r5, [r4, #2068]
 925:HALLIB/Src/stm32f7xx_ll_usb.c **** 
 1901              		.loc 1 925 0
 1902 002e C4F81C58 		str	r5, [r4, #2076]
 928:HALLIB/Src/stm32f7xx_ll_usb.c ****   USB_FlushTxFifo(USBx ,  0x10 );
 1903              		.loc 1 928 0
 1904 0032 2046     		mov	r0, r4
 1905              	.LVL129:
 1906 0034 FFF7FEFF 		bl	USB_FlushRxFifo
 1907              	.LVL130:
 929:HALLIB/Src/stm32f7xx_ll_usb.c **** 
 1908              		.loc 1 929 0
 1909 0038 1021     		movs	r1, #16
 1910 003a 2046     		mov	r0, r4
 1911 003c FFF7FEFF 		bl	USB_FlushTxFifo
 1912              	.LVL131:
 932:HALLIB/Src/stm32f7xx_ll_usb.c **** 
 1913              		.loc 1 932 0
 1914 0040 2846     		mov	r0, r5
 1915 0042 38BD     		pop	{r3, r4, r5, pc}
 1916              		.cfi_endproc
 1917              	.LFE155:
 1919              		.section	.text.USB_SetDevAddress,"ax",%progbits
 1920              		.align	2
 1921              		.global	USB_SetDevAddress
 1922              		.thumb
 1923              		.thumb_func
 1925              	USB_SetDevAddress:
ARM GAS  /tmp/cckeRSC8.s 			page 59


 1926              	.LFB156:
 942:HALLIB/Src/stm32f7xx_ll_usb.c ****   USBx_DEVICE->DCFG &= ~ (USB_OTG_DCFG_DAD);
 1927              		.loc 1 942 0
 1928              		.cfi_startproc
 1929              		@ args = 0, pretend = 0, frame = 0
 1930              		@ frame_needed = 0, uses_anonymous_args = 0
 1931              		@ link register save eliminated.
 1932              	.LVL132:
 943:HALLIB/Src/stm32f7xx_ll_usb.c ****   USBx_DEVICE->DCFG |= (address << 4) & USB_OTG_DCFG_DAD ;
 1933              		.loc 1 943 0
 1934 0000 D0F80038 		ldr	r3, [r0, #2048]
 1935 0004 23F4FE63 		bic	r3, r3, #2032
 1936 0008 C0F80038 		str	r3, [r0, #2048]
 944:HALLIB/Src/stm32f7xx_ll_usb.c **** 
 1937              		.loc 1 944 0
 1938 000c D0F80038 		ldr	r3, [r0, #2048]
 1939 0010 0901     		lsls	r1, r1, #4
 1940              	.LVL133:
 1941 0012 01F4FE61 		and	r1, r1, #2032
 1942 0016 0B43     		orrs	r3, r3, r1
 1943 0018 C0F80038 		str	r3, [r0, #2048]
 947:HALLIB/Src/stm32f7xx_ll_usb.c **** 
 1944              		.loc 1 947 0
 1945 001c 0020     		movs	r0, #0
 1946              	.LVL134:
 1947 001e 7047     		bx	lr
 1948              		.cfi_endproc
 1949              	.LFE156:
 1951              		.section	.text.USB_DevConnect,"ax",%progbits
 1952              		.align	2
 1953              		.global	USB_DevConnect
 1954              		.thumb
 1955              		.thumb_func
 1957              	USB_DevConnect:
 1958              	.LFB157:
 955:HALLIB/Src/stm32f7xx_ll_usb.c ****   USBx_DEVICE->DCTL &= ~USB_OTG_DCTL_SDIS ;
 1959              		.loc 1 955 0
 1960              		.cfi_startproc
 1961              		@ args = 0, pretend = 0, frame = 0
 1962              		@ frame_needed = 0, uses_anonymous_args = 0
 1963              	.LVL135:
 1964 0000 08B5     		push	{r3, lr}
 1965              	.LCFI29:
 1966              		.cfi_def_cfa_offset 8
 1967              		.cfi_offset 3, -8
 1968              		.cfi_offset 14, -4
 956:HALLIB/Src/stm32f7xx_ll_usb.c ****   HAL_Delay(3);
 1969              		.loc 1 956 0
 1970 0002 D0F80438 		ldr	r3, [r0, #2052]
 1971 0006 23F00203 		bic	r3, r3, #2
 1972 000a C0F80438 		str	r3, [r0, #2052]
 957:HALLIB/Src/stm32f7xx_ll_usb.c **** 
 1973              		.loc 1 957 0
 1974 000e 0320     		movs	r0, #3
 1975              	.LVL136:
 1976 0010 FFF7FEFF 		bl	HAL_Delay
 1977              	.LVL137:
ARM GAS  /tmp/cckeRSC8.s 			page 60


 960:HALLIB/Src/stm32f7xx_ll_usb.c **** 
 1978              		.loc 1 960 0
 1979 0014 0020     		movs	r0, #0
 1980 0016 08BD     		pop	{r3, pc}
 1981              		.cfi_endproc
 1982              	.LFE157:
 1984              		.section	.text.USB_DevDisconnect,"ax",%progbits
 1985              		.align	2
 1986              		.global	USB_DevDisconnect
 1987              		.thumb
 1988              		.thumb_func
 1990              	USB_DevDisconnect:
 1991              	.LFB158:
 968:HALLIB/Src/stm32f7xx_ll_usb.c ****   USBx_DEVICE->DCTL |= USB_OTG_DCTL_SDIS ;
 1992              		.loc 1 968 0
 1993              		.cfi_startproc
 1994              		@ args = 0, pretend = 0, frame = 0
 1995              		@ frame_needed = 0, uses_anonymous_args = 0
 1996              	.LVL138:
 1997 0000 08B5     		push	{r3, lr}
 1998              	.LCFI30:
 1999              		.cfi_def_cfa_offset 8
 2000              		.cfi_offset 3, -8
 2001              		.cfi_offset 14, -4
 969:HALLIB/Src/stm32f7xx_ll_usb.c ****   HAL_Delay(3);
 2002              		.loc 1 969 0
 2003 0002 D0F80438 		ldr	r3, [r0, #2052]
 2004 0006 43F00203 		orr	r3, r3, #2
 2005 000a C0F80438 		str	r3, [r0, #2052]
 970:HALLIB/Src/stm32f7xx_ll_usb.c **** 
 2006              		.loc 1 970 0
 2007 000e 0320     		movs	r0, #3
 2008              	.LVL139:
 2009 0010 FFF7FEFF 		bl	HAL_Delay
 2010              	.LVL140:
 973:HALLIB/Src/stm32f7xx_ll_usb.c **** 
 2011              		.loc 1 973 0
 2012 0014 0020     		movs	r0, #0
 2013 0016 08BD     		pop	{r3, pc}
 2014              		.cfi_endproc
 2015              	.LFE158:
 2017              		.section	.text.USB_ReadInterrupts,"ax",%progbits
 2018              		.align	2
 2019              		.global	USB_ReadInterrupts
 2020              		.thumb
 2021              		.thumb_func
 2023              	USB_ReadInterrupts:
 2024              	.LFB159:
 981:HALLIB/Src/stm32f7xx_ll_usb.c ****   uint32_t v = 0;
 2025              		.loc 1 981 0
 2026              		.cfi_startproc
 2027              		@ args = 0, pretend = 0, frame = 0
 2028              		@ frame_needed = 0, uses_anonymous_args = 0
 2029              		@ link register save eliminated.
 2030              	.LVL141:
 984:HALLIB/Src/stm32f7xx_ll_usb.c ****   v &= USBx->GINTMSK;
 2031              		.loc 1 984 0
ARM GAS  /tmp/cckeRSC8.s 			page 61


 2032 0000 4269     		ldr	r2, [r0, #20]
 2033              	.LVL142:
 985:HALLIB/Src/stm32f7xx_ll_usb.c ****   return v;
 2034              		.loc 1 985 0
 2035 0002 8069     		ldr	r0, [r0, #24]
 2036              	.LVL143:
 987:HALLIB/Src/stm32f7xx_ll_usb.c **** 
 2037              		.loc 1 987 0
 2038 0004 1040     		ands	r0, r0, r2
 2039              	.LVL144:
 2040 0006 7047     		bx	lr
 2041              		.cfi_endproc
 2042              	.LFE159:
 2044              		.section	.text.USB_ReadDevAllOutEpInterrupt,"ax",%progbits
 2045              		.align	2
 2046              		.global	USB_ReadDevAllOutEpInterrupt
 2047              		.thumb
 2048              		.thumb_func
 2050              	USB_ReadDevAllOutEpInterrupt:
 2051              	.LFB160:
 995:HALLIB/Src/stm32f7xx_ll_usb.c ****   uint32_t v;
 2052              		.loc 1 995 0
 2053              		.cfi_startproc
 2054              		@ args = 0, pretend = 0, frame = 0
 2055              		@ frame_needed = 0, uses_anonymous_args = 0
 2056              		@ link register save eliminated.
 2057              	.LVL145:
 997:HALLIB/Src/stm32f7xx_ll_usb.c ****   v &= USBx_DEVICE->DAINTMSK;
 2058              		.loc 1 997 0
 2059 0000 00F50063 		add	r3, r0, #2048
 2060 0004 D0F81808 		ldr	r0, [r0, #2072]
 2061              	.LVL146:
 998:HALLIB/Src/stm32f7xx_ll_usb.c ****   return ((v & 0xffff0000) >> 16);
 2062              		.loc 1 998 0
 2063 0008 DB69     		ldr	r3, [r3, #28]
 2064              	.LVL147:
 2065 000a 1840     		ands	r0, r0, r3
 2066              	.LVL148:
1000:HALLIB/Src/stm32f7xx_ll_usb.c **** 
 2067              		.loc 1 1000 0
 2068 000c 000C     		lsrs	r0, r0, #16
 2069              	.LVL149:
 2070 000e 7047     		bx	lr
 2071              		.cfi_endproc
 2072              	.LFE160:
 2074              		.section	.text.USB_ReadDevAllInEpInterrupt,"ax",%progbits
 2075              		.align	2
 2076              		.global	USB_ReadDevAllInEpInterrupt
 2077              		.thumb
 2078              		.thumb_func
 2080              	USB_ReadDevAllInEpInterrupt:
 2081              	.LFB161:
1008:HALLIB/Src/stm32f7xx_ll_usb.c ****   uint32_t v;
 2082              		.loc 1 1008 0
 2083              		.cfi_startproc
 2084              		@ args = 0, pretend = 0, frame = 0
 2085              		@ frame_needed = 0, uses_anonymous_args = 0
ARM GAS  /tmp/cckeRSC8.s 			page 62


 2086              		@ link register save eliminated.
 2087              	.LVL150:
1010:HALLIB/Src/stm32f7xx_ll_usb.c ****   v &= USBx_DEVICE->DAINTMSK;
 2088              		.loc 1 1010 0
 2089 0000 00F50063 		add	r3, r0, #2048
 2090 0004 D0F81808 		ldr	r0, [r0, #2072]
 2091              	.LVL151:
1011:HALLIB/Src/stm32f7xx_ll_usb.c ****   return ((v & 0xFFFF));
 2092              		.loc 1 1011 0
 2093 0008 DB69     		ldr	r3, [r3, #28]
 2094              	.LVL152:
 2095 000a 1840     		ands	r0, r0, r3
 2096              	.LVL153:
1013:HALLIB/Src/stm32f7xx_ll_usb.c **** 
 2097              		.loc 1 1013 0
 2098 000c 80B2     		uxth	r0, r0
 2099              	.LVL154:
 2100 000e 7047     		bx	lr
 2101              		.cfi_endproc
 2102              	.LFE161:
 2104              		.section	.text.USB_ReadDevOutEPInterrupt,"ax",%progbits
 2105              		.align	2
 2106              		.global	USB_ReadDevOutEPInterrupt
 2107              		.thumb
 2108              		.thumb_func
 2110              	USB_ReadDevOutEPInterrupt:
 2111              	.LFB162:
1023:HALLIB/Src/stm32f7xx_ll_usb.c ****   uint32_t v;
 2112              		.loc 1 1023 0
 2113              		.cfi_startproc
 2114              		@ args = 0, pretend = 0, frame = 0
 2115              		@ frame_needed = 0, uses_anonymous_args = 0
 2116              		@ link register save eliminated.
 2117              	.LVL155:
1025:HALLIB/Src/stm32f7xx_ll_usb.c ****   v &= USBx_DEVICE->DOEPMSK;
 2118              		.loc 1 1025 0
 2119 0000 00EB4111 		add	r1, r0, r1, lsl #5
 2120              	.LVL156:
 2121 0004 D1F8082B 		ldr	r2, [r1, #2824]
 2122              	.LVL157:
1026:HALLIB/Src/stm32f7xx_ll_usb.c ****   return v;
 2123              		.loc 1 1026 0
 2124 0008 00F50060 		add	r0, r0, #2048
 2125              	.LVL158:
 2126 000c 4069     		ldr	r0, [r0, #20]
 2127              	.LVL159:
1028:HALLIB/Src/stm32f7xx_ll_usb.c **** 
 2128              		.loc 1 1028 0
 2129 000e 1040     		ands	r0, r0, r2
 2130              	.LVL160:
 2131 0010 7047     		bx	lr
 2132              		.cfi_endproc
 2133              	.LFE162:
 2135 0012 00BF     		.section	.text.USB_ReadDevInEPInterrupt,"ax",%progbits
 2136              		.align	2
 2137              		.global	USB_ReadDevInEPInterrupt
 2138              		.thumb
ARM GAS  /tmp/cckeRSC8.s 			page 63


 2139              		.thumb_func
 2141              	USB_ReadDevInEPInterrupt:
 2142              	.LFB163:
1038:HALLIB/Src/stm32f7xx_ll_usb.c ****   uint32_t v, msk, emp;
 2143              		.loc 1 1038 0
 2144              		.cfi_startproc
 2145              		@ args = 0, pretend = 0, frame = 0
 2146              		@ frame_needed = 0, uses_anonymous_args = 0
 2147              		@ link register save eliminated.
 2148              	.LVL161:
 2149 0000 10B4     		push	{r4}
 2150              	.LCFI31:
 2151              		.cfi_def_cfa_offset 4
 2152              		.cfi_offset 4, -4
1041:HALLIB/Src/stm32f7xx_ll_usb.c ****   emp = USBx_DEVICE->DIEPEMPMSK;
 2153              		.loc 1 1041 0
 2154 0002 D0F81048 		ldr	r4, [r0, #2064]
 2155              	.LVL162:
1042:HALLIB/Src/stm32f7xx_ll_usb.c ****   msk |= ((emp >> epnum) & 0x1) << 7;
 2156              		.loc 1 1042 0
 2157 0006 D0F83438 		ldr	r3, [r0, #2100]
 2158              	.LVL163:
1043:HALLIB/Src/stm32f7xx_ll_usb.c ****   v = USBx_INEP(epnum)->DIEPINT & msk;
 2159              		.loc 1 1043 0
 2160 000a CB40     		lsrs	r3, r3, r1
 2161              	.LVL164:
 2162 000c DB01     		lsls	r3, r3, #7
 2163 000e DBB2     		uxtb	r3, r3
 2164 0010 2343     		orrs	r3, r3, r4
 2165              	.LVL165:
1044:HALLIB/Src/stm32f7xx_ll_usb.c ****   return v;
 2166              		.loc 1 1044 0
 2167 0012 00EB4110 		add	r0, r0, r1, lsl #5
 2168              	.LVL166:
 2169 0016 00F51060 		add	r0, r0, #2304
 2170 001a 8068     		ldr	r0, [r0, #8]
 2171              	.LVL167:
1046:HALLIB/Src/stm32f7xx_ll_usb.c **** 
 2172              		.loc 1 1046 0
 2173 001c 1840     		ands	r0, r0, r3
 2174              	.LVL168:
 2175 001e 5DF8044B 		ldr	r4, [sp], #4
 2176              	.LCFI32:
 2177              		.cfi_restore 4
 2178              		.cfi_def_cfa_offset 0
 2179 0022 7047     		bx	lr
 2180              		.cfi_endproc
 2181              	.LFE163:
 2183              		.section	.text.USB_ClearInterrupts,"ax",%progbits
 2184              		.align	2
 2185              		.global	USB_ClearInterrupts
 2186              		.thumb
 2187              		.thumb_func
 2189              	USB_ClearInterrupts:
 2190              	.LFB164:
1055:HALLIB/Src/stm32f7xx_ll_usb.c ****   USBx->GINTSTS |= interrupt;
 2191              		.loc 1 1055 0
ARM GAS  /tmp/cckeRSC8.s 			page 64


 2192              		.cfi_startproc
 2193              		@ args = 0, pretend = 0, frame = 0
 2194              		@ frame_needed = 0, uses_anonymous_args = 0
 2195              		@ link register save eliminated.
 2196              	.LVL169:
1056:HALLIB/Src/stm32f7xx_ll_usb.c **** }
 2197              		.loc 1 1056 0
 2198 0000 4369     		ldr	r3, [r0, #20]
 2199 0002 1943     		orrs	r1, r1, r3
 2200              	.LVL170:
 2201 0004 4161     		str	r1, [r0, #20]
 2202 0006 7047     		bx	lr
 2203              		.cfi_endproc
 2204              	.LFE164:
 2206              		.section	.text.USB_GetMode,"ax",%progbits
 2207              		.align	2
 2208              		.global	USB_GetMode
 2209              		.thumb
 2210              		.thumb_func
 2212              	USB_GetMode:
 2213              	.LFB165:
1068:HALLIB/Src/stm32f7xx_ll_usb.c ****   return ((USBx->GINTSTS ) & 0x1);
 2214              		.loc 1 1068 0
 2215              		.cfi_startproc
 2216              		@ args = 0, pretend = 0, frame = 0
 2217              		@ frame_needed = 0, uses_anonymous_args = 0
 2218              		@ link register save eliminated.
 2219              	.LVL171:
1069:HALLIB/Src/stm32f7xx_ll_usb.c **** }
 2220              		.loc 1 1069 0
 2221 0000 4069     		ldr	r0, [r0, #20]
 2222              	.LVL172:
1070:HALLIB/Src/stm32f7xx_ll_usb.c **** 
 2223              		.loc 1 1070 0
 2224 0002 00F00100 		and	r0, r0, #1
 2225 0006 7047     		bx	lr
 2226              		.cfi_endproc
 2227              	.LFE165:
 2229              		.section	.text.USB_ActivateSetup,"ax",%progbits
 2230              		.align	2
 2231              		.global	USB_ActivateSetup
 2232              		.thumb
 2233              		.thumb_func
 2235              	USB_ActivateSetup:
 2236              	.LFB166:
1079:HALLIB/Src/stm32f7xx_ll_usb.c ****   /* Set the MPS of the IN EP based on the enumeration speed */
 2237              		.loc 1 1079 0
 2238              		.cfi_startproc
 2239              		@ args = 0, pretend = 0, frame = 0
 2240              		@ frame_needed = 0, uses_anonymous_args = 0
 2241              		@ link register save eliminated.
 2242              	.LVL173:
1081:HALLIB/Src/stm32f7xx_ll_usb.c **** 
 2243              		.loc 1 1081 0
 2244 0000 D0F80029 		ldr	r2, [r0, #2304]
 2245 0004 0B4B     		ldr	r3, .L155
 2246 0006 1340     		ands	r3, r3, r2
ARM GAS  /tmp/cckeRSC8.s 			page 65


 2247 0008 C0F80039 		str	r3, [r0, #2304]
1083:HALLIB/Src/stm32f7xx_ll_usb.c ****   {
 2248              		.loc 1 1083 0
 2249 000c 00F50063 		add	r3, r0, #2048
 2250 0010 9A68     		ldr	r2, [r3, #8]
 2251 0012 02F00602 		and	r2, r2, #6
 2252 0016 042A     		cmp	r2, #4
 2253 0018 05D1     		bne	.L154
1085:HALLIB/Src/stm32f7xx_ll_usb.c ****   }
 2254              		.loc 1 1085 0
 2255 001a D0F80029 		ldr	r2, [r0, #2304]
 2256 001e 42F00302 		orr	r2, r2, #3
 2257 0022 C0F80029 		str	r2, [r0, #2304]
 2258              	.L154:
1087:HALLIB/Src/stm32f7xx_ll_usb.c **** 
 2259              		.loc 1 1087 0
 2260 0026 5A68     		ldr	r2, [r3, #4]
 2261 0028 42F48072 		orr	r2, r2, #256
 2262 002c 5A60     		str	r2, [r3, #4]
1090:HALLIB/Src/stm32f7xx_ll_usb.c **** 
 2263              		.loc 1 1090 0
 2264 002e 0020     		movs	r0, #0
 2265              	.LVL174:
 2266 0030 7047     		bx	lr
 2267              	.L156:
 2268 0032 00BF     		.align	2
 2269              	.L155:
 2270 0034 00F8FFFF 		.word	-2048
 2271              		.cfi_endproc
 2272              	.LFE166:
 2274              		.section	.text.USB_EP0_OutStart,"ax",%progbits
 2275              		.align	2
 2276              		.global	USB_EP0_OutStart
 2277              		.thumb
 2278              		.thumb_func
 2280              	USB_EP0_OutStart:
 2281              	.LFB167:
1104:HALLIB/Src/stm32f7xx_ll_usb.c ****   USBx_OUTEP(0)->DOEPTSIZ = 0;
 2282              		.loc 1 1104 0
 2283              		.cfi_startproc
 2284              		@ args = 0, pretend = 0, frame = 0
 2285              		@ frame_needed = 0, uses_anonymous_args = 0
 2286              		@ link register save eliminated.
 2287              	.LVL175:
 2288 0000 10B4     		push	{r4}
 2289              	.LCFI33:
 2290              		.cfi_def_cfa_offset 4
 2291              		.cfi_offset 4, -4
1105:HALLIB/Src/stm32f7xx_ll_usb.c ****   USBx_OUTEP(0)->DOEPTSIZ |= (USB_OTG_DOEPTSIZ_PKTCNT & (1 << 19)) ;
 2292              		.loc 1 1105 0
 2293 0002 0024     		movs	r4, #0
 2294 0004 C0F8104B 		str	r4, [r0, #2832]
1106:HALLIB/Src/stm32f7xx_ll_usb.c ****   USBx_OUTEP(0)->DOEPTSIZ |= (3 * 8);
 2295              		.loc 1 1106 0
 2296 0008 D0F8104B 		ldr	r4, [r0, #2832]
 2297 000c 44F40024 		orr	r4, r4, #524288
 2298 0010 C0F8104B 		str	r4, [r0, #2832]
ARM GAS  /tmp/cckeRSC8.s 			page 66


1107:HALLIB/Src/stm32f7xx_ll_usb.c ****   USBx_OUTEP(0)->DOEPTSIZ |=  USB_OTG_DOEPTSIZ_STUPCNT;
 2299              		.loc 1 1107 0
 2300 0014 D0F8104B 		ldr	r4, [r0, #2832]
 2301 0018 44F01804 		orr	r4, r4, #24
 2302 001c C0F8104B 		str	r4, [r0, #2832]
1108:HALLIB/Src/stm32f7xx_ll_usb.c **** 
 2303              		.loc 1 1108 0
 2304 0020 D0F8104B 		ldr	r4, [r0, #2832]
 2305 0024 44F0C044 		orr	r4, r4, #1610612736
 2306 0028 C0F8104B 		str	r4, [r0, #2832]
1110:HALLIB/Src/stm32f7xx_ll_usb.c ****   {
 2307              		.loc 1 1110 0
 2308 002c 0129     		cmp	r1, #1
 2309 002e 05D1     		bne	.L158
1112:HALLIB/Src/stm32f7xx_ll_usb.c ****     /* EP enable */
 2310              		.loc 1 1112 0
 2311 0030 C0F8142B 		str	r2, [r0, #2836]
1114:HALLIB/Src/stm32f7xx_ll_usb.c ****   }
 2312              		.loc 1 1114 0
 2313 0034 4FF08023 		mov	r3, #-2147450880
 2314 0038 C0F8003B 		str	r3, [r0, #2816]
 2315              	.L158:
1118:HALLIB/Src/stm32f7xx_ll_usb.c **** 
 2316              		.loc 1 1118 0
 2317 003c 0020     		movs	r0, #0
 2318              	.LVL176:
 2319 003e 5DF8044B 		ldr	r4, [sp], #4
 2320              	.LCFI34:
 2321              		.cfi_restore 4
 2322              		.cfi_def_cfa_offset 0
 2323 0042 7047     		bx	lr
 2324              		.cfi_endproc
 2325              	.LFE167:
 2327              		.section	.text.USB_InitFSLSPClkSel,"ax",%progbits
 2328              		.align	2
 2329              		.global	USB_InitFSLSPClkSel
 2330              		.thumb
 2331              		.thumb_func
 2333              	USB_InitFSLSPClkSel:
 2334              	.LFB170:
1155:HALLIB/Src/stm32f7xx_ll_usb.c **** 
1156:HALLIB/Src/stm32f7xx_ll_usb.c **** #ifdef USB_HS_PHYC
1157:HALLIB/Src/stm32f7xx_ll_usb.c **** /**
1158:HALLIB/Src/stm32f7xx_ll_usb.c ****   * @brief  Enables control of a High Speed USB PHYs
1159:HALLIB/Src/stm32f7xx_ll_usb.c ****   *         Init the low level hardware : GPIO, CLOCK, NVIC...
1160:HALLIB/Src/stm32f7xx_ll_usb.c ****   * @param  USBx  Selected device
1161:HALLIB/Src/stm32f7xx_ll_usb.c ****   * @retval HAL status
1162:HALLIB/Src/stm32f7xx_ll_usb.c ****   */
1163:HALLIB/Src/stm32f7xx_ll_usb.c **** static HAL_StatusTypeDef USB_HS_PHYCInit(USB_OTG_GlobalTypeDef *USBx)
1164:HALLIB/Src/stm32f7xx_ll_usb.c **** {
1165:HALLIB/Src/stm32f7xx_ll_usb.c ****   uint32_t count = 0;
1166:HALLIB/Src/stm32f7xx_ll_usb.c **** 
1167:HALLIB/Src/stm32f7xx_ll_usb.c ****   /* Enable LDO */
1168:HALLIB/Src/stm32f7xx_ll_usb.c ****   USB_HS_PHYC->USB_HS_PHYC_LDO |= USB_HS_PHYC_LDO_ENABLE;
1169:HALLIB/Src/stm32f7xx_ll_usb.c **** 
1170:HALLIB/Src/stm32f7xx_ll_usb.c ****   /* wait for LDO Ready */
1171:HALLIB/Src/stm32f7xx_ll_usb.c ****   while((USB_HS_PHYC->USB_HS_PHYC_LDO & USB_HS_PHYC_LDO_STATUS) == RESET)
ARM GAS  /tmp/cckeRSC8.s 			page 67


1172:HALLIB/Src/stm32f7xx_ll_usb.c ****   {
1173:HALLIB/Src/stm32f7xx_ll_usb.c ****     if (++count > 200000)
1174:HALLIB/Src/stm32f7xx_ll_usb.c ****     {
1175:HALLIB/Src/stm32f7xx_ll_usb.c ****       return HAL_TIMEOUT;
1176:HALLIB/Src/stm32f7xx_ll_usb.c ****     }
1177:HALLIB/Src/stm32f7xx_ll_usb.c ****   }
1178:HALLIB/Src/stm32f7xx_ll_usb.c **** 
1179:HALLIB/Src/stm32f7xx_ll_usb.c ****   /* Controls PHY frequency operation selection */
1180:HALLIB/Src/stm32f7xx_ll_usb.c ****   if (HSE_VALUE == 12000000) /* HSE = 12MHz */
1181:HALLIB/Src/stm32f7xx_ll_usb.c ****   {
1182:HALLIB/Src/stm32f7xx_ll_usb.c ****     USB_HS_PHYC->USB_HS_PHYC_PLL = (uint32_t)(0x0 << 1);
1183:HALLIB/Src/stm32f7xx_ll_usb.c ****   }
1184:HALLIB/Src/stm32f7xx_ll_usb.c ****   else if (HSE_VALUE == 12500000) /* HSE = 12.5MHz */
1185:HALLIB/Src/stm32f7xx_ll_usb.c ****   {
1186:HALLIB/Src/stm32f7xx_ll_usb.c ****     USB_HS_PHYC->USB_HS_PHYC_PLL = (uint32_t)(0x2 << 1);
1187:HALLIB/Src/stm32f7xx_ll_usb.c ****   }
1188:HALLIB/Src/stm32f7xx_ll_usb.c ****   else if (HSE_VALUE == 16000000) /* HSE = 16MHz */
1189:HALLIB/Src/stm32f7xx_ll_usb.c ****   {
1190:HALLIB/Src/stm32f7xx_ll_usb.c ****     USB_HS_PHYC->USB_HS_PHYC_PLL = (uint32_t)(0x3 << 1);
1191:HALLIB/Src/stm32f7xx_ll_usb.c ****   }
1192:HALLIB/Src/stm32f7xx_ll_usb.c **** 
1193:HALLIB/Src/stm32f7xx_ll_usb.c ****   else if (HSE_VALUE == 24000000) /* HSE = 24MHz */
1194:HALLIB/Src/stm32f7xx_ll_usb.c ****   {
1195:HALLIB/Src/stm32f7xx_ll_usb.c ****     USB_HS_PHYC->USB_HS_PHYC_PLL = (uint32_t)(0x4 << 1);
1196:HALLIB/Src/stm32f7xx_ll_usb.c ****   }
1197:HALLIB/Src/stm32f7xx_ll_usb.c ****   else if (HSE_VALUE == 25000000) /* HSE = 25MHz */
1198:HALLIB/Src/stm32f7xx_ll_usb.c ****   {
1199:HALLIB/Src/stm32f7xx_ll_usb.c ****     USB_HS_PHYC->USB_HS_PHYC_PLL = (uint32_t)(0x5 << 1);
1200:HALLIB/Src/stm32f7xx_ll_usb.c ****   }
1201:HALLIB/Src/stm32f7xx_ll_usb.c ****   else if (HSE_VALUE == 32000000) /* HSE = 32MHz */
1202:HALLIB/Src/stm32f7xx_ll_usb.c ****   {
1203:HALLIB/Src/stm32f7xx_ll_usb.c ****     USB_HS_PHYC->USB_HS_PHYC_PLL = (uint32_t)(0x7 << 1);
1204:HALLIB/Src/stm32f7xx_ll_usb.c ****   }
1205:HALLIB/Src/stm32f7xx_ll_usb.c **** 
1206:HALLIB/Src/stm32f7xx_ll_usb.c ****   /* Control the tuning interface of the High Speed PHY */
1207:HALLIB/Src/stm32f7xx_ll_usb.c ****   USB_HS_PHYC->USB_HS_PHYC_TUNE |= USB_HS_PHYC_TUNE_VALUE;
1208:HALLIB/Src/stm32f7xx_ll_usb.c **** 
1209:HALLIB/Src/stm32f7xx_ll_usb.c ****   /* Enable PLL internal PHY */
1210:HALLIB/Src/stm32f7xx_ll_usb.c ****   USB_HS_PHYC->USB_HS_PHYC_PLL |= USB_HS_PHYC_PLL_PLLEN;
1211:HALLIB/Src/stm32f7xx_ll_usb.c **** 
1212:HALLIB/Src/stm32f7xx_ll_usb.c ****   /* 2ms Delay required to get internal phy clock stable */
1213:HALLIB/Src/stm32f7xx_ll_usb.c ****   HAL_Delay(2);
1214:HALLIB/Src/stm32f7xx_ll_usb.c **** 
1215:HALLIB/Src/stm32f7xx_ll_usb.c ****   return HAL_OK;
1216:HALLIB/Src/stm32f7xx_ll_usb.c **** }
1217:HALLIB/Src/stm32f7xx_ll_usb.c **** 
1218:HALLIB/Src/stm32f7xx_ll_usb.c **** #endif /* USB_HS_PHYC */
1219:HALLIB/Src/stm32f7xx_ll_usb.c **** /**
1220:HALLIB/Src/stm32f7xx_ll_usb.c ****   * @brief  USB_HostInit : Initializes the USB OTG controller registers
1221:HALLIB/Src/stm32f7xx_ll_usb.c ****   *         for Host mode
1222:HALLIB/Src/stm32f7xx_ll_usb.c ****   * @param  USBx  Selected device
1223:HALLIB/Src/stm32f7xx_ll_usb.c ****   * @param  cfg   pointer to a USB_OTG_CfgTypeDef structure that contains
1224:HALLIB/Src/stm32f7xx_ll_usb.c ****   *         the configuration information for the specified USBx peripheral.
1225:HALLIB/Src/stm32f7xx_ll_usb.c ****   * @retval HAL status
1226:HALLIB/Src/stm32f7xx_ll_usb.c ****   */
1227:HALLIB/Src/stm32f7xx_ll_usb.c **** HAL_StatusTypeDef USB_HostInit (USB_OTG_GlobalTypeDef *USBx, USB_OTG_CfgTypeDef cfg)
1228:HALLIB/Src/stm32f7xx_ll_usb.c **** {
ARM GAS  /tmp/cckeRSC8.s 			page 68


1229:HALLIB/Src/stm32f7xx_ll_usb.c ****   uint32_t i;
1230:HALLIB/Src/stm32f7xx_ll_usb.c **** 
1231:HALLIB/Src/stm32f7xx_ll_usb.c ****   /* Restart the Phy Clock */
1232:HALLIB/Src/stm32f7xx_ll_usb.c ****   USBx_PCGCCTL = 0;
1233:HALLIB/Src/stm32f7xx_ll_usb.c **** 
1234:HALLIB/Src/stm32f7xx_ll_usb.c ****   /*Activate VBUS Sensing B */
1235:HALLIB/Src/stm32f7xx_ll_usb.c ****   USBx->GCCFG |= USB_OTG_GCCFG_VBDEN;
1236:HALLIB/Src/stm32f7xx_ll_usb.c **** 
1237:HALLIB/Src/stm32f7xx_ll_usb.c ****   /* Disable the FS/LS support mode only */
1238:HALLIB/Src/stm32f7xx_ll_usb.c ****   if((cfg.speed == USB_OTG_SPEED_FULL)&&
1239:HALLIB/Src/stm32f7xx_ll_usb.c ****      (USBx != USB_OTG_FS))
1240:HALLIB/Src/stm32f7xx_ll_usb.c ****   {
1241:HALLIB/Src/stm32f7xx_ll_usb.c ****     USBx_HOST->HCFG |= USB_OTG_HCFG_FSLSS;
1242:HALLIB/Src/stm32f7xx_ll_usb.c ****   }
1243:HALLIB/Src/stm32f7xx_ll_usb.c ****   else
1244:HALLIB/Src/stm32f7xx_ll_usb.c ****   {
1245:HALLIB/Src/stm32f7xx_ll_usb.c ****     USBx_HOST->HCFG &= ~(USB_OTG_HCFG_FSLSS);
1246:HALLIB/Src/stm32f7xx_ll_usb.c ****   }
1247:HALLIB/Src/stm32f7xx_ll_usb.c **** 
1248:HALLIB/Src/stm32f7xx_ll_usb.c ****   /* Make sure the FIFOs are flushed. */
1249:HALLIB/Src/stm32f7xx_ll_usb.c ****   USB_FlushTxFifo(USBx, 0x10 ); /* all Tx FIFOs */
1250:HALLIB/Src/stm32f7xx_ll_usb.c ****   USB_FlushRxFifo(USBx);
1251:HALLIB/Src/stm32f7xx_ll_usb.c **** 
1252:HALLIB/Src/stm32f7xx_ll_usb.c ****   /* Clear all pending HC Interrupts */
1253:HALLIB/Src/stm32f7xx_ll_usb.c ****   for (i = 0; i < cfg.Host_channels; i++)
1254:HALLIB/Src/stm32f7xx_ll_usb.c ****   {
1255:HALLIB/Src/stm32f7xx_ll_usb.c ****     USBx_HC(i)->HCINT = 0xFFFFFFFF;
1256:HALLIB/Src/stm32f7xx_ll_usb.c ****     USBx_HC(i)->HCINTMSK = 0;
1257:HALLIB/Src/stm32f7xx_ll_usb.c ****   }
1258:HALLIB/Src/stm32f7xx_ll_usb.c **** 
1259:HALLIB/Src/stm32f7xx_ll_usb.c ****   /* Enable VBUS driving */
1260:HALLIB/Src/stm32f7xx_ll_usb.c ****   USB_DriveVbus(USBx, 1);
1261:HALLIB/Src/stm32f7xx_ll_usb.c **** 
1262:HALLIB/Src/stm32f7xx_ll_usb.c ****   HAL_Delay(200);
1263:HALLIB/Src/stm32f7xx_ll_usb.c **** 
1264:HALLIB/Src/stm32f7xx_ll_usb.c ****   /* Disable all interrupts. */
1265:HALLIB/Src/stm32f7xx_ll_usb.c ****   USBx->GINTMSK = 0;
1266:HALLIB/Src/stm32f7xx_ll_usb.c **** 
1267:HALLIB/Src/stm32f7xx_ll_usb.c ****   /* Clear any pending interrupts */
1268:HALLIB/Src/stm32f7xx_ll_usb.c ****   USBx->GINTSTS = 0xFFFFFFFF;
1269:HALLIB/Src/stm32f7xx_ll_usb.c **** 
1270:HALLIB/Src/stm32f7xx_ll_usb.c ****   if(USBx == USB_OTG_FS)
1271:HALLIB/Src/stm32f7xx_ll_usb.c ****   {
1272:HALLIB/Src/stm32f7xx_ll_usb.c ****     /* set Rx FIFO size */
1273:HALLIB/Src/stm32f7xx_ll_usb.c ****     USBx->GRXFSIZ  = (uint32_t )0x80;
1274:HALLIB/Src/stm32f7xx_ll_usb.c ****     USBx->DIEPTXF0_HNPTXFSIZ = (uint32_t )(((0x60 << 16)& USB_OTG_NPTXFD) | 0x80);
1275:HALLIB/Src/stm32f7xx_ll_usb.c ****     USBx->HPTXFSIZ = (uint32_t )(((0x40 << 16)& USB_OTG_HPTXFSIZ_PTXFD) | 0xE0);
1276:HALLIB/Src/stm32f7xx_ll_usb.c ****   }
1277:HALLIB/Src/stm32f7xx_ll_usb.c ****   else
1278:HALLIB/Src/stm32f7xx_ll_usb.c ****   {
1279:HALLIB/Src/stm32f7xx_ll_usb.c ****     /* set Rx FIFO size */
1280:HALLIB/Src/stm32f7xx_ll_usb.c ****     USBx->GRXFSIZ  = (uint32_t )0x200;
1281:HALLIB/Src/stm32f7xx_ll_usb.c ****     USBx->DIEPTXF0_HNPTXFSIZ = (uint32_t )(((0x100 << 16)& USB_OTG_NPTXFD) | 0x200);
1282:HALLIB/Src/stm32f7xx_ll_usb.c ****     USBx->HPTXFSIZ = (uint32_t )(((0xE0 << 16)& USB_OTG_HPTXFSIZ_PTXFD) | 0x300);
1283:HALLIB/Src/stm32f7xx_ll_usb.c ****   }
1284:HALLIB/Src/stm32f7xx_ll_usb.c **** 
1285:HALLIB/Src/stm32f7xx_ll_usb.c ****   /* Enable the common interrupts */
ARM GAS  /tmp/cckeRSC8.s 			page 69


1286:HALLIB/Src/stm32f7xx_ll_usb.c ****   if (cfg.dma_enable == DISABLE)
1287:HALLIB/Src/stm32f7xx_ll_usb.c ****   {
1288:HALLIB/Src/stm32f7xx_ll_usb.c ****     USBx->GINTMSK |= USB_OTG_GINTMSK_RXFLVLM;
1289:HALLIB/Src/stm32f7xx_ll_usb.c ****   }
1290:HALLIB/Src/stm32f7xx_ll_usb.c **** 
1291:HALLIB/Src/stm32f7xx_ll_usb.c ****   /* Enable interrupts matching to the Host mode ONLY */
1292:HALLIB/Src/stm32f7xx_ll_usb.c ****   USBx->GINTMSK |= (USB_OTG_GINTMSK_PRTIM            | USB_OTG_GINTMSK_HCIM |\
1293:HALLIB/Src/stm32f7xx_ll_usb.c ****                     USB_OTG_GINTMSK_SOFM             |USB_OTG_GINTSTS_DISCINT|\
1294:HALLIB/Src/stm32f7xx_ll_usb.c ****                     USB_OTG_GINTMSK_PXFRM_IISOOXFRM  | USB_OTG_GINTMSK_WUIM);
1295:HALLIB/Src/stm32f7xx_ll_usb.c **** 
1296:HALLIB/Src/stm32f7xx_ll_usb.c ****   return HAL_OK;
1297:HALLIB/Src/stm32f7xx_ll_usb.c **** }
1298:HALLIB/Src/stm32f7xx_ll_usb.c **** 
1299:HALLIB/Src/stm32f7xx_ll_usb.c **** /**
1300:HALLIB/Src/stm32f7xx_ll_usb.c ****   * @brief  USB_InitFSLSPClkSel : Initializes the FSLSPClkSel field of the
1301:HALLIB/Src/stm32f7xx_ll_usb.c ****   *         HCFG register on the PHY type and set the right frame interval
1302:HALLIB/Src/stm32f7xx_ll_usb.c ****   * @param  USBx  Selected device
1303:HALLIB/Src/stm32f7xx_ll_usb.c ****   * @param  freq  clock frequency
1304:HALLIB/Src/stm32f7xx_ll_usb.c ****   *          This parameter can be one of these values:
1305:HALLIB/Src/stm32f7xx_ll_usb.c ****   *           HCFG_48_MHZ : Full Speed 48 MHz Clock
1306:HALLIB/Src/stm32f7xx_ll_usb.c ****   *           HCFG_6_MHZ : Low Speed 6 MHz Clock
1307:HALLIB/Src/stm32f7xx_ll_usb.c ****   * @retval HAL status
1308:HALLIB/Src/stm32f7xx_ll_usb.c ****   */
1309:HALLIB/Src/stm32f7xx_ll_usb.c **** HAL_StatusTypeDef USB_InitFSLSPClkSel(USB_OTG_GlobalTypeDef *USBx , uint8_t freq)
1310:HALLIB/Src/stm32f7xx_ll_usb.c **** {
 2335              		.loc 1 1310 0
 2336              		.cfi_startproc
 2337              		@ args = 0, pretend = 0, frame = 0
 2338              		@ frame_needed = 0, uses_anonymous_args = 0
 2339              		@ link register save eliminated.
 2340              	.LVL177:
 2341 0000 10B4     		push	{r4}
 2342              	.LCFI35:
 2343              		.cfi_def_cfa_offset 4
 2344              		.cfi_offset 4, -4
1311:HALLIB/Src/stm32f7xx_ll_usb.c ****   USBx_HOST->HCFG &= ~(USB_OTG_HCFG_FSLSPCS);
 2345              		.loc 1 1311 0
 2346 0002 00F58064 		add	r4, r0, #1024
 2347 0006 D0F80034 		ldr	r3, [r0, #1024]
 2348 000a 23F00303 		bic	r3, r3, #3
 2349 000e C0F80034 		str	r3, [r0, #1024]
1312:HALLIB/Src/stm32f7xx_ll_usb.c ****   USBx_HOST->HCFG |= (freq & USB_OTG_HCFG_FSLSPCS);
 2350              		.loc 1 1312 0
 2351 0012 D0F80034 		ldr	r3, [r0, #1024]
 2352 0016 01F00302 		and	r2, r1, #3
 2353 001a 1343     		orrs	r3, r3, r2
 2354 001c C0F80034 		str	r3, [r0, #1024]
1313:HALLIB/Src/stm32f7xx_ll_usb.c **** 
1314:HALLIB/Src/stm32f7xx_ll_usb.c ****   if (freq ==  HCFG_48_MHZ)
 2355              		.loc 1 1314 0
 2356 0020 0129     		cmp	r1, #1
 2357 0022 03D1     		bne	.L161
1315:HALLIB/Src/stm32f7xx_ll_usb.c ****   {
1316:HALLIB/Src/stm32f7xx_ll_usb.c ****     USBx_HOST->HFIR = (uint32_t)48000;
 2358              		.loc 1 1316 0
 2359 0024 4BF68033 		movw	r3, #48000
 2360 0028 6360     		str	r3, [r4, #4]
ARM GAS  /tmp/cckeRSC8.s 			page 70


 2361 002a 04E0     		b	.L162
 2362              	.L161:
1317:HALLIB/Src/stm32f7xx_ll_usb.c ****   }
1318:HALLIB/Src/stm32f7xx_ll_usb.c ****   else if (freq ==  HCFG_6_MHZ)
 2363              		.loc 1 1318 0
 2364 002c 0229     		cmp	r1, #2
 2365 002e 02D1     		bne	.L162
1319:HALLIB/Src/stm32f7xx_ll_usb.c ****   {
1320:HALLIB/Src/stm32f7xx_ll_usb.c ****     USBx_HOST->HFIR = (uint32_t)6000;
 2366              		.loc 1 1320 0
 2367 0030 41F27073 		movw	r3, #6000
 2368 0034 6360     		str	r3, [r4, #4]
 2369              	.L162:
1321:HALLIB/Src/stm32f7xx_ll_usb.c ****   }
1322:HALLIB/Src/stm32f7xx_ll_usb.c ****   return HAL_OK;
1323:HALLIB/Src/stm32f7xx_ll_usb.c **** }
 2370              		.loc 1 1323 0
 2371 0036 0020     		movs	r0, #0
 2372              	.LVL178:
 2373 0038 5DF8044B 		ldr	r4, [sp], #4
 2374              	.LCFI36:
 2375              		.cfi_restore 4
 2376              		.cfi_def_cfa_offset 0
 2377              	.LVL179:
 2378 003c 7047     		bx	lr
 2379              		.cfi_endproc
 2380              	.LFE170:
 2382 003e 00BF     		.section	.text.USB_ResetPort,"ax",%progbits
 2383              		.align	2
 2384              		.global	USB_ResetPort
 2385              		.thumb
 2386              		.thumb_func
 2388              	USB_ResetPort:
 2389              	.LFB171:
1324:HALLIB/Src/stm32f7xx_ll_usb.c **** 
1325:HALLIB/Src/stm32f7xx_ll_usb.c **** /**
1326:HALLIB/Src/stm32f7xx_ll_usb.c **** * @brief  USB_OTG_ResetPort : Reset Host Port
1327:HALLIB/Src/stm32f7xx_ll_usb.c ****   * @param  USBx  Selected device
1328:HALLIB/Src/stm32f7xx_ll_usb.c ****   * @retval HAL status
1329:HALLIB/Src/stm32f7xx_ll_usb.c ****   * @note : (1)The application must wait at least 10 ms
1330:HALLIB/Src/stm32f7xx_ll_usb.c ****   *   before clearing the reset bit.
1331:HALLIB/Src/stm32f7xx_ll_usb.c ****   */
1332:HALLIB/Src/stm32f7xx_ll_usb.c **** HAL_StatusTypeDef USB_ResetPort(USB_OTG_GlobalTypeDef *USBx)
1333:HALLIB/Src/stm32f7xx_ll_usb.c **** {
 2390              		.loc 1 1333 0
 2391              		.cfi_startproc
 2392              		@ args = 0, pretend = 0, frame = 8
 2393              		@ frame_needed = 0, uses_anonymous_args = 0
 2394              	.LVL180:
 2395 0000 10B5     		push	{r4, lr}
 2396              	.LCFI37:
 2397              		.cfi_def_cfa_offset 8
 2398              		.cfi_offset 4, -8
 2399              		.cfi_offset 14, -4
 2400 0002 82B0     		sub	sp, sp, #8
 2401              	.LCFI38:
 2402              		.cfi_def_cfa_offset 16
ARM GAS  /tmp/cckeRSC8.s 			page 71


 2403 0004 0446     		mov	r4, r0
1334:HALLIB/Src/stm32f7xx_ll_usb.c ****   __IO uint32_t hprt0;
1335:HALLIB/Src/stm32f7xx_ll_usb.c **** 
1336:HALLIB/Src/stm32f7xx_ll_usb.c ****   hprt0 = USBx_HPRT0;
 2404              		.loc 1 1336 0
 2405 0006 D0F84034 		ldr	r3, [r0, #1088]
 2406 000a 0193     		str	r3, [sp, #4]
1337:HALLIB/Src/stm32f7xx_ll_usb.c **** 
1338:HALLIB/Src/stm32f7xx_ll_usb.c ****   hprt0 &= ~(USB_OTG_HPRT_PENA | USB_OTG_HPRT_PCDET |
 2407              		.loc 1 1338 0
 2408 000c 019B     		ldr	r3, [sp, #4]
 2409 000e 23F02E03 		bic	r3, r3, #46
 2410 0012 0193     		str	r3, [sp, #4]
1339:HALLIB/Src/stm32f7xx_ll_usb.c ****              USB_OTG_HPRT_PENCHNG | USB_OTG_HPRT_POCCHNG);
1340:HALLIB/Src/stm32f7xx_ll_usb.c **** 
1341:HALLIB/Src/stm32f7xx_ll_usb.c ****   USBx_HPRT0 = (USB_OTG_HPRT_PRST | hprt0);
 2411              		.loc 1 1341 0
 2412 0014 019B     		ldr	r3, [sp, #4]
 2413 0016 43F48073 		orr	r3, r3, #256
 2414 001a C0F84034 		str	r3, [r0, #1088]
1342:HALLIB/Src/stm32f7xx_ll_usb.c ****   HAL_Delay (100);                                /* See Note #1 */
 2415              		.loc 1 1342 0
 2416 001e 6420     		movs	r0, #100
 2417              	.LVL181:
 2418 0020 FFF7FEFF 		bl	HAL_Delay
 2419              	.LVL182:
1343:HALLIB/Src/stm32f7xx_ll_usb.c ****   USBx_HPRT0 = ((~USB_OTG_HPRT_PRST) & hprt0);
 2420              		.loc 1 1343 0
 2421 0024 019B     		ldr	r3, [sp, #4]
 2422 0026 23F48073 		bic	r3, r3, #256
 2423 002a C4F84034 		str	r3, [r4, #1088]
1344:HALLIB/Src/stm32f7xx_ll_usb.c ****   HAL_Delay (10);
 2424              		.loc 1 1344 0
 2425 002e 0A20     		movs	r0, #10
 2426 0030 FFF7FEFF 		bl	HAL_Delay
 2427              	.LVL183:
1345:HALLIB/Src/stm32f7xx_ll_usb.c **** 
1346:HALLIB/Src/stm32f7xx_ll_usb.c ****   return HAL_OK;
1347:HALLIB/Src/stm32f7xx_ll_usb.c **** }
 2428              		.loc 1 1347 0
 2429 0034 0020     		movs	r0, #0
 2430 0036 02B0     		add	sp, sp, #8
 2431              	.LCFI39:
 2432              		.cfi_def_cfa_offset 8
 2433              		@ sp needed
 2434 0038 10BD     		pop	{r4, pc}
 2435              		.cfi_endproc
 2436              	.LFE171:
 2438 003a 00BF     		.section	.text.USB_DriveVbus,"ax",%progbits
 2439              		.align	2
 2440              		.global	USB_DriveVbus
 2441              		.thumb
 2442              		.thumb_func
 2444              	USB_DriveVbus:
 2445              	.LFB172:
1348:HALLIB/Src/stm32f7xx_ll_usb.c **** 
1349:HALLIB/Src/stm32f7xx_ll_usb.c **** /**
ARM GAS  /tmp/cckeRSC8.s 			page 72


1350:HALLIB/Src/stm32f7xx_ll_usb.c ****   * @brief  USB_DriveVbus : activate or de-activate vbus
1351:HALLIB/Src/stm32f7xx_ll_usb.c ****   * @param  state  VBUS state
1352:HALLIB/Src/stm32f7xx_ll_usb.c ****   *          This parameter can be one of these values:
1353:HALLIB/Src/stm32f7xx_ll_usb.c ****   *           0 : VBUS Active
1354:HALLIB/Src/stm32f7xx_ll_usb.c ****   *           1 : VBUS Inactive
1355:HALLIB/Src/stm32f7xx_ll_usb.c ****   * @retval HAL status
1356:HALLIB/Src/stm32f7xx_ll_usb.c **** */
1357:HALLIB/Src/stm32f7xx_ll_usb.c **** HAL_StatusTypeDef USB_DriveVbus (USB_OTG_GlobalTypeDef *USBx, uint8_t state)
1358:HALLIB/Src/stm32f7xx_ll_usb.c **** {
 2446              		.loc 1 1358 0
 2447              		.cfi_startproc
 2448              		@ args = 0, pretend = 0, frame = 8
 2449              		@ frame_needed = 0, uses_anonymous_args = 0
 2450              		@ link register save eliminated.
 2451              	.LVL184:
 2452 0000 82B0     		sub	sp, sp, #8
 2453              	.LCFI40:
 2454              		.cfi_def_cfa_offset 8
1359:HALLIB/Src/stm32f7xx_ll_usb.c ****   __IO uint32_t hprt0;
1360:HALLIB/Src/stm32f7xx_ll_usb.c **** 
1361:HALLIB/Src/stm32f7xx_ll_usb.c ****   hprt0 = USBx_HPRT0;
 2455              		.loc 1 1361 0
 2456 0002 D0F84034 		ldr	r3, [r0, #1088]
 2457 0006 0193     		str	r3, [sp, #4]
1362:HALLIB/Src/stm32f7xx_ll_usb.c **** 
1363:HALLIB/Src/stm32f7xx_ll_usb.c ****   hprt0 &= ~(USB_OTG_HPRT_PENA | USB_OTG_HPRT_PCDET |
 2458              		.loc 1 1363 0
 2459 0008 019B     		ldr	r3, [sp, #4]
 2460 000a 23F02E03 		bic	r3, r3, #46
 2461 000e 0193     		str	r3, [sp, #4]
1364:HALLIB/Src/stm32f7xx_ll_usb.c ****              USB_OTG_HPRT_PENCHNG | USB_OTG_HPRT_POCCHNG);
1365:HALLIB/Src/stm32f7xx_ll_usb.c **** 
1366:HALLIB/Src/stm32f7xx_ll_usb.c ****   if (((hprt0 & USB_OTG_HPRT_PPWR) == 0 ) && (state == 1 ))
 2462              		.loc 1 1366 0
 2463 0010 019B     		ldr	r3, [sp, #4]
 2464 0012 13F4805F 		tst	r3, #4096
 2465 0016 06D1     		bne	.L167
 2466              		.loc 1 1366 0 is_stmt 0 discriminator 1
 2467 0018 0129     		cmp	r1, #1
 2468 001a 04D1     		bne	.L167
1367:HALLIB/Src/stm32f7xx_ll_usb.c ****   {
1368:HALLIB/Src/stm32f7xx_ll_usb.c ****     USBx_HPRT0 = (USB_OTG_HPRT_PPWR | hprt0);
 2469              		.loc 1 1368 0 is_stmt 1
 2470 001c 019B     		ldr	r3, [sp, #4]
 2471 001e 43F48053 		orr	r3, r3, #4096
 2472 0022 C0F84034 		str	r3, [r0, #1088]
 2473              	.L167:
1369:HALLIB/Src/stm32f7xx_ll_usb.c ****   }
1370:HALLIB/Src/stm32f7xx_ll_usb.c ****   if (((hprt0 & USB_OTG_HPRT_PPWR) == USB_OTG_HPRT_PPWR) && (state == 0 ))
 2474              		.loc 1 1370 0
 2475 0026 019B     		ldr	r3, [sp, #4]
 2476 0028 13F4805F 		tst	r3, #4096
 2477 002c 05D0     		beq	.L168
 2478              		.loc 1 1370 0 is_stmt 0 discriminator 1
 2479 002e 21B9     		cbnz	r1, .L168
1371:HALLIB/Src/stm32f7xx_ll_usb.c ****   {
1372:HALLIB/Src/stm32f7xx_ll_usb.c ****     USBx_HPRT0 = ((~USB_OTG_HPRT_PPWR) & hprt0);
ARM GAS  /tmp/cckeRSC8.s 			page 73


 2480              		.loc 1 1372 0 is_stmt 1
 2481 0030 019B     		ldr	r3, [sp, #4]
 2482 0032 23F48053 		bic	r3, r3, #4096
 2483 0036 C0F84034 		str	r3, [r0, #1088]
 2484              	.L168:
1373:HALLIB/Src/stm32f7xx_ll_usb.c ****   }
1374:HALLIB/Src/stm32f7xx_ll_usb.c ****   return HAL_OK;
1375:HALLIB/Src/stm32f7xx_ll_usb.c **** }
 2485              		.loc 1 1375 0
 2486 003a 0020     		movs	r0, #0
 2487              	.LVL185:
 2488 003c 02B0     		add	sp, sp, #8
 2489              	.LCFI41:
 2490              		.cfi_def_cfa_offset 0
 2491              		@ sp needed
 2492 003e 7047     		bx	lr
 2493              		.cfi_endproc
 2494              	.LFE172:
 2496              		.section	.text.USB_HostInit,"ax",%progbits
 2497              		.align	2
 2498              		.global	USB_HostInit
 2499              		.thumb
 2500              		.thumb_func
 2502              	USB_HostInit:
 2503              	.LFB169:
1228:HALLIB/Src/stm32f7xx_ll_usb.c ****   uint32_t i;
 2504              		.loc 1 1228 0
 2505              		.cfi_startproc
 2506              		@ args = 56, pretend = 16, frame = 0
 2507              		@ frame_needed = 0, uses_anonymous_args = 0
 2508              	.LVL186:
 2509 0000 84B0     		sub	sp, sp, #16
 2510              	.LCFI42:
 2511              		.cfi_def_cfa_offset 16
 2512 0002 38B5     		push	{r3, r4, r5, lr}
 2513              	.LCFI43:
 2514              		.cfi_def_cfa_offset 32
 2515              		.cfi_offset 3, -32
 2516              		.cfi_offset 4, -28
 2517              		.cfi_offset 5, -24
 2518              		.cfi_offset 14, -20
 2519 0004 0446     		mov	r4, r0
 2520 0006 05A8     		add	r0, sp, #20
 2521              	.LVL187:
 2522 0008 80E80E00 		stmia	r0, {r1, r2, r3}
1232:HALLIB/Src/stm32f7xx_ll_usb.c **** 
 2523              		.loc 1 1232 0
 2524 000c 2546     		mov	r5, r4
 2525 000e 0023     		movs	r3, #0
 2526 0010 C4F8003E 		str	r3, [r4, #3584]
1235:HALLIB/Src/stm32f7xx_ll_usb.c **** 
 2527              		.loc 1 1235 0
 2528 0014 A36B     		ldr	r3, [r4, #56]
 2529 0016 43F40013 		orr	r3, r3, #2097152
 2530 001a A363     		str	r3, [r4, #56]
1238:HALLIB/Src/stm32f7xx_ll_usb.c ****      (USBx != USB_OTG_FS))
 2531              		.loc 1 1238 0
ARM GAS  /tmp/cckeRSC8.s 			page 74


 2532 001c 079B     		ldr	r3, [sp, #28]
 2533 001e 032B     		cmp	r3, #3
 2534 0020 09D1     		bne	.L171
1238:HALLIB/Src/stm32f7xx_ll_usb.c ****      (USBx != USB_OTG_FS))
 2535              		.loc 1 1238 0 is_stmt 0 discriminator 1
 2536 0022 B4F1A04F 		cmp	r4, #1342177280
 2537 0026 06D0     		beq	.L171
1241:HALLIB/Src/stm32f7xx_ll_usb.c ****   }
 2538              		.loc 1 1241 0 is_stmt 1
 2539 0028 D4F80034 		ldr	r3, [r4, #1024]
 2540 002c 43F00403 		orr	r3, r3, #4
 2541 0030 C4F80034 		str	r3, [r4, #1024]
 2542 0034 05E0     		b	.L172
 2543              	.L171:
1245:HALLIB/Src/stm32f7xx_ll_usb.c ****   }
 2544              		.loc 1 1245 0
 2545 0036 D4F80034 		ldr	r3, [r4, #1024]
 2546 003a 23F00403 		bic	r3, r3, #4
 2547 003e C4F80034 		str	r3, [r4, #1024]
 2548              	.L172:
1249:HALLIB/Src/stm32f7xx_ll_usb.c ****   USB_FlushRxFifo(USBx);
 2549              		.loc 1 1249 0
 2550 0042 1021     		movs	r1, #16
 2551 0044 2046     		mov	r0, r4
 2552 0046 FFF7FEFF 		bl	USB_FlushTxFifo
 2553              	.LVL188:
1250:HALLIB/Src/stm32f7xx_ll_usb.c **** 
 2554              		.loc 1 1250 0
 2555 004a 2046     		mov	r0, r4
 2556 004c FFF7FEFF 		bl	USB_FlushRxFifo
 2557              	.LVL189:
1253:HALLIB/Src/stm32f7xx_ll_usb.c ****   {
 2558              		.loc 1 1253 0
 2559 0050 0022     		movs	r2, #0
 2560 0052 09E0     		b	.L173
 2561              	.LVL190:
 2562              	.L174:
1255:HALLIB/Src/stm32f7xx_ll_usb.c ****     USBx_HC(i)->HCINTMSK = 0;
 2563              		.loc 1 1255 0 discriminator 3
 2564 0054 05EB4213 		add	r3, r5, r2, lsl #5
 2565 0058 4FF0FF31 		mov	r1, #-1
 2566 005c C3F80815 		str	r1, [r3, #1288]
1256:HALLIB/Src/stm32f7xx_ll_usb.c ****   }
 2567              		.loc 1 1256 0 discriminator 3
 2568 0060 0021     		movs	r1, #0
 2569 0062 C3F80C15 		str	r1, [r3, #1292]
1253:HALLIB/Src/stm32f7xx_ll_usb.c ****   {
 2570              		.loc 1 1253 0 discriminator 3
 2571 0066 0132     		adds	r2, r2, #1
 2572              	.LVL191:
 2573              	.L173:
1253:HALLIB/Src/stm32f7xx_ll_usb.c ****   {
 2574              		.loc 1 1253 0 is_stmt 0 discriminator 1
 2575 0068 069B     		ldr	r3, [sp, #24]
 2576 006a 9A42     		cmp	r2, r3
 2577 006c F2D3     		bcc	.L174
1260:HALLIB/Src/stm32f7xx_ll_usb.c **** 
ARM GAS  /tmp/cckeRSC8.s 			page 75


 2578              		.loc 1 1260 0 is_stmt 1
 2579 006e 0121     		movs	r1, #1
 2580 0070 2046     		mov	r0, r4
 2581 0072 FFF7FEFF 		bl	USB_DriveVbus
 2582              	.LVL192:
1262:HALLIB/Src/stm32f7xx_ll_usb.c **** 
 2583              		.loc 1 1262 0
 2584 0076 C820     		movs	r0, #200
 2585 0078 FFF7FEFF 		bl	HAL_Delay
 2586              	.LVL193:
1265:HALLIB/Src/stm32f7xx_ll_usb.c **** 
 2587              		.loc 1 1265 0
 2588 007c 0023     		movs	r3, #0
 2589 007e A361     		str	r3, [r4, #24]
1268:HALLIB/Src/stm32f7xx_ll_usb.c **** 
 2590              		.loc 1 1268 0
 2591 0080 4FF0FF33 		mov	r3, #-1
 2592 0084 6361     		str	r3, [r4, #20]
1270:HALLIB/Src/stm32f7xx_ll_usb.c ****   {
 2593              		.loc 1 1270 0
 2594 0086 B4F1A04F 		cmp	r4, #1342177280
 2595 008a 08D1     		bne	.L175
1273:HALLIB/Src/stm32f7xx_ll_usb.c ****     USBx->DIEPTXF0_HNPTXFSIZ = (uint32_t )(((0x60 << 16)& USB_OTG_NPTXFD) | 0x80);
 2596              		.loc 1 1273 0
 2597 008c 8023     		movs	r3, #128
 2598 008e 6362     		str	r3, [r4, #36]
1274:HALLIB/Src/stm32f7xx_ll_usb.c ****     USBx->HPTXFSIZ = (uint32_t )(((0x40 << 16)& USB_OTG_HPTXFSIZ_PTXFD) | 0xE0);
 2599              		.loc 1 1274 0
 2600 0090 03F5C003 		add	r3, r3, #6291456
 2601 0094 A362     		str	r3, [r4, #40]
1275:HALLIB/Src/stm32f7xx_ll_usb.c ****   }
 2602              		.loc 1 1275 0
 2603 0096 0E4B     		ldr	r3, .L179
 2604 0098 C4F80031 		str	r3, [r4, #256]
 2605 009c 08E0     		b	.L176
 2606              	.L175:
1280:HALLIB/Src/stm32f7xx_ll_usb.c ****     USBx->DIEPTXF0_HNPTXFSIZ = (uint32_t )(((0x100 << 16)& USB_OTG_NPTXFD) | 0x200);
 2607              		.loc 1 1280 0
 2608 009e 4FF40073 		mov	r3, #512
 2609 00a2 6362     		str	r3, [r4, #36]
1281:HALLIB/Src/stm32f7xx_ll_usb.c ****     USBx->HPTXFSIZ = (uint32_t )(((0xE0 << 16)& USB_OTG_HPTXFSIZ_PTXFD) | 0x300);
 2610              		.loc 1 1281 0
 2611 00a4 03F18073 		add	r3, r3, #16777216
 2612 00a8 A362     		str	r3, [r4, #40]
1282:HALLIB/Src/stm32f7xx_ll_usb.c ****   }
 2613              		.loc 1 1282 0
 2614 00aa 0A4B     		ldr	r3, .L179+4
 2615 00ac C4F80031 		str	r3, [r4, #256]
 2616              	.L176:
1286:HALLIB/Src/stm32f7xx_ll_usb.c ****   {
 2617              		.loc 1 1286 0
 2618 00b0 089B     		ldr	r3, [sp, #32]
 2619 00b2 1BB9     		cbnz	r3, .L177
1288:HALLIB/Src/stm32f7xx_ll_usb.c ****   }
 2620              		.loc 1 1288 0
 2621 00b4 A369     		ldr	r3, [r4, #24]
 2622 00b6 43F01003 		orr	r3, r3, #16
ARM GAS  /tmp/cckeRSC8.s 			page 76


 2623 00ba A361     		str	r3, [r4, #24]
 2624              	.L177:
1292:HALLIB/Src/stm32f7xx_ll_usb.c ****                     USB_OTG_GINTMSK_SOFM             |USB_OTG_GINTSTS_DISCINT|\
 2625              		.loc 1 1292 0
 2626 00bc A269     		ldr	r2, [r4, #24]
 2627 00be 064B     		ldr	r3, .L179+8
 2628 00c0 1343     		orrs	r3, r3, r2
 2629 00c2 A361     		str	r3, [r4, #24]
1297:HALLIB/Src/stm32f7xx_ll_usb.c **** 
 2630              		.loc 1 1297 0
 2631 00c4 0020     		movs	r0, #0
 2632 00c6 BDE83840 		pop	{r3, r4, r5, lr}
 2633              	.LCFI44:
 2634              		.cfi_restore 14
 2635              		.cfi_restore 5
 2636              		.cfi_restore 4
 2637              		.cfi_restore 3
 2638              		.cfi_def_cfa_offset 16
 2639              	.LVL194:
 2640 00ca 04B0     		add	sp, sp, #16
 2641              	.LCFI45:
 2642              		.cfi_def_cfa_offset 0
 2643 00cc 7047     		bx	lr
 2644              	.L180:
 2645 00ce 00BF     		.align	2
 2646              	.L179:
 2647 00d0 E0004000 		.word	4194528
 2648 00d4 0003E000 		.word	14680832
 2649 00d8 080020A3 		.word	-1558183928
 2650              		.cfi_endproc
 2651              	.LFE169:
 2653              		.section	.text.USB_GetHostSpeed,"ax",%progbits
 2654              		.align	2
 2655              		.global	USB_GetHostSpeed
 2656              		.thumb
 2657              		.thumb_func
 2659              	USB_GetHostSpeed:
 2660              	.LFB173:
1376:HALLIB/Src/stm32f7xx_ll_usb.c **** 
1377:HALLIB/Src/stm32f7xx_ll_usb.c **** /**
1378:HALLIB/Src/stm32f7xx_ll_usb.c ****   * @brief  Return Host Core speed
1379:HALLIB/Src/stm32f7xx_ll_usb.c ****   * @param  USBx  Selected device
1380:HALLIB/Src/stm32f7xx_ll_usb.c ****   * @retval speed : Host speed
1381:HALLIB/Src/stm32f7xx_ll_usb.c ****   *          This parameter can be one of these values:
1382:HALLIB/Src/stm32f7xx_ll_usb.c ****   *            @arg USB_OTG_SPEED_HIGH: High speed mode
1383:HALLIB/Src/stm32f7xx_ll_usb.c ****   *            @arg USB_OTG_SPEED_FULL: Full speed mode
1384:HALLIB/Src/stm32f7xx_ll_usb.c ****   *            @arg USB_OTG_SPEED_LOW: Low speed mode
1385:HALLIB/Src/stm32f7xx_ll_usb.c ****   */
1386:HALLIB/Src/stm32f7xx_ll_usb.c **** uint32_t USB_GetHostSpeed (USB_OTG_GlobalTypeDef *USBx)
1387:HALLIB/Src/stm32f7xx_ll_usb.c **** {
 2661              		.loc 1 1387 0
 2662              		.cfi_startproc
 2663              		@ args = 0, pretend = 0, frame = 8
 2664              		@ frame_needed = 0, uses_anonymous_args = 0
 2665              		@ link register save eliminated.
 2666              	.LVL195:
 2667 0000 82B0     		sub	sp, sp, #8
ARM GAS  /tmp/cckeRSC8.s 			page 77


 2668              	.LCFI46:
 2669              		.cfi_def_cfa_offset 8
1388:HALLIB/Src/stm32f7xx_ll_usb.c ****   __IO uint32_t hprt0;
1389:HALLIB/Src/stm32f7xx_ll_usb.c **** 
1390:HALLIB/Src/stm32f7xx_ll_usb.c ****   hprt0 = USBx_HPRT0;
 2670              		.loc 1 1390 0
 2671 0002 D0F84034 		ldr	r3, [r0, #1088]
 2672 0006 0193     		str	r3, [sp, #4]
1391:HALLIB/Src/stm32f7xx_ll_usb.c ****   return ((hprt0 & USB_OTG_HPRT_PSPD) >> 17);
 2673              		.loc 1 1391 0
 2674 0008 0198     		ldr	r0, [sp, #4]
 2675              	.LVL196:
1392:HALLIB/Src/stm32f7xx_ll_usb.c **** }
 2676              		.loc 1 1392 0
 2677 000a C0F34140 		ubfx	r0, r0, #17, #2
 2678 000e 02B0     		add	sp, sp, #8
 2679              	.LCFI47:
 2680              		.cfi_def_cfa_offset 0
 2681              		@ sp needed
 2682 0010 7047     		bx	lr
 2683              		.cfi_endproc
 2684              	.LFE173:
 2686 0012 00BF     		.section	.text.USB_GetCurrentFrame,"ax",%progbits
 2687              		.align	2
 2688              		.global	USB_GetCurrentFrame
 2689              		.thumb
 2690              		.thumb_func
 2692              	USB_GetCurrentFrame:
 2693              	.LFB174:
1393:HALLIB/Src/stm32f7xx_ll_usb.c **** 
1394:HALLIB/Src/stm32f7xx_ll_usb.c **** /**
1395:HALLIB/Src/stm32f7xx_ll_usb.c ****   * @brief  Return Host Current Frame number
1396:HALLIB/Src/stm32f7xx_ll_usb.c ****   * @param  USBx  Selected device
1397:HALLIB/Src/stm32f7xx_ll_usb.c ****   * @retval current frame number
1398:HALLIB/Src/stm32f7xx_ll_usb.c **** */
1399:HALLIB/Src/stm32f7xx_ll_usb.c **** uint32_t USB_GetCurrentFrame (USB_OTG_GlobalTypeDef *USBx)
1400:HALLIB/Src/stm32f7xx_ll_usb.c **** {
 2694              		.loc 1 1400 0
 2695              		.cfi_startproc
 2696              		@ args = 0, pretend = 0, frame = 0
 2697              		@ frame_needed = 0, uses_anonymous_args = 0
 2698              		@ link register save eliminated.
 2699              	.LVL197:
1401:HALLIB/Src/stm32f7xx_ll_usb.c ****   return (USBx_HOST->HFNUM & USB_OTG_HFNUM_FRNUM);
 2700              		.loc 1 1401 0
 2701 0000 00F58060 		add	r0, r0, #1024
 2702              	.LVL198:
 2703 0004 8068     		ldr	r0, [r0, #8]
 2704              	.LVL199:
1402:HALLIB/Src/stm32f7xx_ll_usb.c **** }
 2705              		.loc 1 1402 0
 2706 0006 80B2     		uxth	r0, r0
 2707 0008 7047     		bx	lr
 2708              		.cfi_endproc
 2709              	.LFE174:
 2711 000a 00BF     		.section	.text.USB_HC_Init,"ax",%progbits
 2712              		.align	2
ARM GAS  /tmp/cckeRSC8.s 			page 78


 2713              		.global	USB_HC_Init
 2714              		.thumb
 2715              		.thumb_func
 2717              	USB_HC_Init:
 2718              	.LFB175:
1403:HALLIB/Src/stm32f7xx_ll_usb.c **** 
1404:HALLIB/Src/stm32f7xx_ll_usb.c **** /**
1405:HALLIB/Src/stm32f7xx_ll_usb.c ****   * @brief  Initialize a host channel
1406:HALLIB/Src/stm32f7xx_ll_usb.c ****   * @param  USBx  Selected device
1407:HALLIB/Src/stm32f7xx_ll_usb.c ****   * @param  ch_num  Channel number
1408:HALLIB/Src/stm32f7xx_ll_usb.c ****   *         This parameter can be a value from 1 to 15
1409:HALLIB/Src/stm32f7xx_ll_usb.c ****   * @param  epnum  Endpoint number
1410:HALLIB/Src/stm32f7xx_ll_usb.c ****   *          This parameter can be a value from 1 to 15
1411:HALLIB/Src/stm32f7xx_ll_usb.c ****   * @param  dev_address  Current device address
1412:HALLIB/Src/stm32f7xx_ll_usb.c ****   *          This parameter can be a value from 0 to 255
1413:HALLIB/Src/stm32f7xx_ll_usb.c ****   * @param  speed  Current device speed
1414:HALLIB/Src/stm32f7xx_ll_usb.c ****   *          This parameter can be one of these values:
1415:HALLIB/Src/stm32f7xx_ll_usb.c ****   *            @arg USB_OTG_SPEED_HIGH: High speed mode
1416:HALLIB/Src/stm32f7xx_ll_usb.c ****   *            @arg USB_OTG_SPEED_FULL: Full speed mode
1417:HALLIB/Src/stm32f7xx_ll_usb.c ****   *            @arg USB_OTG_SPEED_LOW: Low speed mode
1418:HALLIB/Src/stm32f7xx_ll_usb.c ****   * @param  ep_type  Endpoint Type
1419:HALLIB/Src/stm32f7xx_ll_usb.c ****   *          This parameter can be one of these values:
1420:HALLIB/Src/stm32f7xx_ll_usb.c ****   *            @arg EP_TYPE_CTRL: Control type
1421:HALLIB/Src/stm32f7xx_ll_usb.c ****   *            @arg EP_TYPE_ISOC: Isochronous type
1422:HALLIB/Src/stm32f7xx_ll_usb.c ****   *            @arg EP_TYPE_BULK: Bulk type
1423:HALLIB/Src/stm32f7xx_ll_usb.c ****   *            @arg EP_TYPE_INTR: Interrupt type
1424:HALLIB/Src/stm32f7xx_ll_usb.c ****   * @param  mps  Max Packet Size
1425:HALLIB/Src/stm32f7xx_ll_usb.c ****   *          This parameter can be a value from 0 to32K
1426:HALLIB/Src/stm32f7xx_ll_usb.c ****   * @retval HAL state
1427:HALLIB/Src/stm32f7xx_ll_usb.c ****   */
1428:HALLIB/Src/stm32f7xx_ll_usb.c **** HAL_StatusTypeDef USB_HC_Init(USB_OTG_GlobalTypeDef *USBx,
1429:HALLIB/Src/stm32f7xx_ll_usb.c ****                               uint8_t ch_num,
1430:HALLIB/Src/stm32f7xx_ll_usb.c ****                               uint8_t epnum,
1431:HALLIB/Src/stm32f7xx_ll_usb.c ****                               uint8_t dev_address,
1432:HALLIB/Src/stm32f7xx_ll_usb.c ****                               uint8_t speed,
1433:HALLIB/Src/stm32f7xx_ll_usb.c ****                               uint8_t ep_type,
1434:HALLIB/Src/stm32f7xx_ll_usb.c ****                               uint16_t mps)
1435:HALLIB/Src/stm32f7xx_ll_usb.c **** {
 2719              		.loc 1 1435 0
 2720              		.cfi_startproc
 2721              		@ args = 12, pretend = 0, frame = 0
 2722              		@ frame_needed = 0, uses_anonymous_args = 0
 2723              	.LVL200:
 2724 0000 F0B5     		push	{r4, r5, r6, r7, lr}
 2725              	.LCFI48:
 2726              		.cfi_def_cfa_offset 20
 2727              		.cfi_offset 4, -20
 2728              		.cfi_offset 5, -16
 2729              		.cfi_offset 6, -12
 2730              		.cfi_offset 7, -8
 2731              		.cfi_offset 14, -4
 2732 0002 9DF81840 		ldrb	r4, [sp, #24]	@ zero_extendqisi2
1436:HALLIB/Src/stm32f7xx_ll_usb.c **** 
1437:HALLIB/Src/stm32f7xx_ll_usb.c ****   /* Clear old interrupt conditions for this host channel. */
1438:HALLIB/Src/stm32f7xx_ll_usb.c ****   USBx_HC(ch_num)->HCINT = 0xFFFFFFFF;
 2733              		.loc 1 1438 0
 2734 0006 00EB4115 		add	r5, r0, r1, lsl #5
ARM GAS  /tmp/cckeRSC8.s 			page 79


 2735 000a 05F5A066 		add	r6, r5, #1280
 2736 000e 4FF0FF37 		mov	r7, #-1
 2737 0012 B760     		str	r7, [r6, #8]
1439:HALLIB/Src/stm32f7xx_ll_usb.c **** 
1440:HALLIB/Src/stm32f7xx_ll_usb.c ****   /* Enable channel interrupts required for this transfer. */
1441:HALLIB/Src/stm32f7xx_ll_usb.c ****   switch (ep_type)
 2738              		.loc 1 1441 0
 2739 0014 032C     		cmp	r4, #3
 2740 0016 2BD8     		bhi	.L185
 2741 0018 DFE804F0 		tbb	[pc, r4]
 2742              	.L187:
 2743 001c 02       		.byte	(.L186-.L187)/2
 2744 001d 20       		.byte	(.L188-.L187)/2
 2745 001e 02       		.byte	(.L186-.L187)/2
 2746 001f 15       		.byte	(.L189-.L187)/2
 2747              		.p2align 1
 2748              	.L186:
1442:HALLIB/Src/stm32f7xx_ll_usb.c ****   {
1443:HALLIB/Src/stm32f7xx_ll_usb.c ****   case EP_TYPE_CTRL:
1444:HALLIB/Src/stm32f7xx_ll_usb.c ****   case EP_TYPE_BULK:
1445:HALLIB/Src/stm32f7xx_ll_usb.c **** 
1446:HALLIB/Src/stm32f7xx_ll_usb.c ****     USBx_HC(ch_num)->HCINTMSK = USB_OTG_HCINTMSK_XFRCM  |\
 2749              		.loc 1 1446 0
 2750 0020 40F29D47 		movw	r7, #1181
 2751 0024 F760     		str	r7, [r6, #12]
1447:HALLIB/Src/stm32f7xx_ll_usb.c ****                                 USB_OTG_HCINTMSK_STALLM |\
1448:HALLIB/Src/stm32f7xx_ll_usb.c ****                                 USB_OTG_HCINTMSK_TXERRM |\
1449:HALLIB/Src/stm32f7xx_ll_usb.c ****                                 USB_OTG_HCINTMSK_DTERRM |\
1450:HALLIB/Src/stm32f7xx_ll_usb.c ****                                 USB_OTG_HCINTMSK_AHBERR |\
1451:HALLIB/Src/stm32f7xx_ll_usb.c ****                                 USB_OTG_HCINTMSK_NAKM ;
1452:HALLIB/Src/stm32f7xx_ll_usb.c **** 
1453:HALLIB/Src/stm32f7xx_ll_usb.c ****     if (epnum & 0x80)
 2752              		.loc 1 1453 0
 2753 0026 12F0800F 		tst	r2, #128
 2754 002a 04D0     		beq	.L190
1454:HALLIB/Src/stm32f7xx_ll_usb.c ****     {
1455:HALLIB/Src/stm32f7xx_ll_usb.c ****       USBx_HC(ch_num)->HCINTMSK |= USB_OTG_HCINTMSK_BBERRM;
 2755              		.loc 1 1455 0
 2756 002c F768     		ldr	r7, [r6, #12]
 2757 002e 47F48077 		orr	r7, r7, #256
 2758 0032 F760     		str	r7, [r6, #12]
 2759 0034 1CE0     		b	.L185
 2760              	.L190:
1456:HALLIB/Src/stm32f7xx_ll_usb.c ****     }
1457:HALLIB/Src/stm32f7xx_ll_usb.c ****     else
1458:HALLIB/Src/stm32f7xx_ll_usb.c ****     {
1459:HALLIB/Src/stm32f7xx_ll_usb.c ****       if(USBx != USB_OTG_FS)
 2761              		.loc 1 1459 0
 2762 0036 B0F1A04F 		cmp	r0, #1342177280
 2763 003a 19D0     		beq	.L185
1460:HALLIB/Src/stm32f7xx_ll_usb.c ****       {
1461:HALLIB/Src/stm32f7xx_ll_usb.c ****         USBx_HC(ch_num)->HCINTMSK |= (USB_OTG_HCINTMSK_NYET | USB_OTG_HCINTMSK_ACKM);
 2764              		.loc 1 1461 0
 2765 003c F768     		ldr	r7, [r6, #12]
 2766 003e 47F06007 		orr	r7, r7, #96
 2767 0042 F760     		str	r7, [r6, #12]
 2768 0044 14E0     		b	.L185
ARM GAS  /tmp/cckeRSC8.s 			page 80


 2769              	.L189:
1462:HALLIB/Src/stm32f7xx_ll_usb.c ****       }
1463:HALLIB/Src/stm32f7xx_ll_usb.c ****     }
1464:HALLIB/Src/stm32f7xx_ll_usb.c ****     break;
1465:HALLIB/Src/stm32f7xx_ll_usb.c **** 
1466:HALLIB/Src/stm32f7xx_ll_usb.c ****   case EP_TYPE_INTR:
1467:HALLIB/Src/stm32f7xx_ll_usb.c **** 
1468:HALLIB/Src/stm32f7xx_ll_usb.c ****     USBx_HC(ch_num)->HCINTMSK = USB_OTG_HCINTMSK_XFRCM  |\
 2770              		.loc 1 1468 0
 2771 0046 40F29D67 		movw	r7, #1693
 2772 004a F760     		str	r7, [r6, #12]
1469:HALLIB/Src/stm32f7xx_ll_usb.c ****                                 USB_OTG_HCINTMSK_STALLM |\
1470:HALLIB/Src/stm32f7xx_ll_usb.c ****                                 USB_OTG_HCINTMSK_TXERRM |\
1471:HALLIB/Src/stm32f7xx_ll_usb.c ****                                 USB_OTG_HCINTMSK_DTERRM |\
1472:HALLIB/Src/stm32f7xx_ll_usb.c ****                                 USB_OTG_HCINTMSK_NAKM   |\
1473:HALLIB/Src/stm32f7xx_ll_usb.c ****                                 USB_OTG_HCINTMSK_AHBERR |\
1474:HALLIB/Src/stm32f7xx_ll_usb.c ****                                 USB_OTG_HCINTMSK_FRMORM ;
1475:HALLIB/Src/stm32f7xx_ll_usb.c **** 
1476:HALLIB/Src/stm32f7xx_ll_usb.c ****     if (epnum & 0x80)
 2773              		.loc 1 1476 0
 2774 004c 12F0800F 		tst	r2, #128
 2775 0050 0ED0     		beq	.L185
1477:HALLIB/Src/stm32f7xx_ll_usb.c ****     {
1478:HALLIB/Src/stm32f7xx_ll_usb.c ****       USBx_HC(ch_num)->HCINTMSK |= USB_OTG_HCINTMSK_BBERRM;
 2776              		.loc 1 1478 0
 2777 0052 F768     		ldr	r7, [r6, #12]
 2778 0054 47F48077 		orr	r7, r7, #256
 2779 0058 F760     		str	r7, [r6, #12]
 2780 005a 09E0     		b	.L185
 2781              	.L188:
1479:HALLIB/Src/stm32f7xx_ll_usb.c ****     }
1480:HALLIB/Src/stm32f7xx_ll_usb.c **** 
1481:HALLIB/Src/stm32f7xx_ll_usb.c ****     break;
1482:HALLIB/Src/stm32f7xx_ll_usb.c ****   case EP_TYPE_ISOC:
1483:HALLIB/Src/stm32f7xx_ll_usb.c **** 
1484:HALLIB/Src/stm32f7xx_ll_usb.c ****     USBx_HC(ch_num)->HCINTMSK = USB_OTG_HCINTMSK_XFRCM  |\
 2782              		.loc 1 1484 0
 2783 005c 40F22527 		movw	r7, #549
 2784 0060 F760     		str	r7, [r6, #12]
1485:HALLIB/Src/stm32f7xx_ll_usb.c ****                                 USB_OTG_HCINTMSK_ACKM   |\
1486:HALLIB/Src/stm32f7xx_ll_usb.c ****                                 USB_OTG_HCINTMSK_AHBERR |\
1487:HALLIB/Src/stm32f7xx_ll_usb.c ****                                 USB_OTG_HCINTMSK_FRMORM ;
1488:HALLIB/Src/stm32f7xx_ll_usb.c **** 
1489:HALLIB/Src/stm32f7xx_ll_usb.c ****     if (epnum & 0x80)
 2785              		.loc 1 1489 0
 2786 0062 12F0800F 		tst	r2, #128
 2787 0066 03D0     		beq	.L185
1490:HALLIB/Src/stm32f7xx_ll_usb.c ****     {
1491:HALLIB/Src/stm32f7xx_ll_usb.c ****       USBx_HC(ch_num)->HCINTMSK |= (USB_OTG_HCINTMSK_TXERRM | USB_OTG_HCINTMSK_BBERRM);
 2788              		.loc 1 1491 0
 2789 0068 F768     		ldr	r7, [r6, #12]
 2790 006a 47F4C077 		orr	r7, r7, #384
 2791 006e F760     		str	r7, [r6, #12]
 2792              	.L185:
1492:HALLIB/Src/stm32f7xx_ll_usb.c ****     }
1493:HALLIB/Src/stm32f7xx_ll_usb.c ****     break;
1494:HALLIB/Src/stm32f7xx_ll_usb.c ****   }
ARM GAS  /tmp/cckeRSC8.s 			page 81


1495:HALLIB/Src/stm32f7xx_ll_usb.c **** 
1496:HALLIB/Src/stm32f7xx_ll_usb.c ****   /* Enable the top level host channel interrupt. */
1497:HALLIB/Src/stm32f7xx_ll_usb.c ****   USBx_HOST->HAINTMSK |= (1 << ch_num);
 2793              		.loc 1 1497 0
 2794 0070 00F5806E 		add	lr, r0, #1024
 2795 0074 D0F81864 		ldr	r6, [r0, #1048]
 2796 0078 0127     		movs	r7, #1
 2797 007a 07FA01F1 		lsl	r1, r7, r1
 2798              	.LVL201:
 2799 007e 3143     		orrs	r1, r1, r6
 2800 0080 C0F81814 		str	r1, [r0, #1048]
1498:HALLIB/Src/stm32f7xx_ll_usb.c **** 
1499:HALLIB/Src/stm32f7xx_ll_usb.c ****   /* Make sure host channel interrupts are enabled. */
1500:HALLIB/Src/stm32f7xx_ll_usb.c ****   USBx->GINTMSK |= USB_OTG_GINTMSK_HCIM;
 2801              		.loc 1 1500 0
 2802 0084 8169     		ldr	r1, [r0, #24]
 2803 0086 41F00071 		orr	r1, r1, #33554432
 2804 008a 8161     		str	r1, [r0, #24]
1501:HALLIB/Src/stm32f7xx_ll_usb.c **** 
1502:HALLIB/Src/stm32f7xx_ll_usb.c ****   /* Program the HCCHAR register */
1503:HALLIB/Src/stm32f7xx_ll_usb.c ****   USBx_HC(ch_num)->HCCHAR = (((dev_address << 22) & USB_OTG_HCCHAR_DAD)  |\
 2805              		.loc 1 1503 0
 2806 008c 9B05     		lsls	r3, r3, #22
 2807              	.LVL202:
 2808 008e 03F0FE53 		and	r3, r3, #532676608
1504:HALLIB/Src/stm32f7xx_ll_usb.c ****                              (((epnum & 0x7F)<< 11) & USB_OTG_HCCHAR_EPNUM)|\
 2809              		.loc 1 1504 0
 2810 0092 D102     		lsls	r1, r2, #11
 2811 0094 01F4F041 		and	r1, r1, #30720
1503:HALLIB/Src/stm32f7xx_ll_usb.c ****                              (((epnum & 0x7F)<< 11) & USB_OTG_HCCHAR_EPNUM)|\
 2812              		.loc 1 1503 0
 2813 0098 0B43     		orrs	r3, r3, r1
1505:HALLIB/Src/stm32f7xx_ll_usb.c ****                              ((((epnum & 0x80) == 0x80)<< 15) & USB_OTG_HCCHAR_EPDIR)|\
 2814              		.loc 1 1505 0
 2815 009a 12F0800F 		tst	r2, #128
 2816 009e 02D0     		beq	.L194
 2817 00a0 4FF40042 		mov	r2, #32768
 2818              	.LVL203:
 2819 00a4 00E0     		b	.L191
 2820              	.LVL204:
 2821              	.L194:
 2822 00a6 0022     		movs	r2, #0
 2823              	.LVL205:
 2824              	.L191:
1504:HALLIB/Src/stm32f7xx_ll_usb.c ****                              (((epnum & 0x7F)<< 11) & USB_OTG_HCCHAR_EPNUM)|\
 2825              		.loc 1 1504 0
 2826 00a8 1343     		orrs	r3, r3, r2
1506:HALLIB/Src/stm32f7xx_ll_usb.c ****                              (((speed == HPRT0_PRTSPD_LOW_SPEED)<< 17) & USB_OTG_HCCHAR_LSDEV)|\
 2827              		.loc 1 1506 0
 2828 00aa 9DF81420 		ldrb	r2, [sp, #20]	@ zero_extendqisi2
 2829 00ae 022A     		cmp	r2, #2
 2830 00b0 02D1     		bne	.L195
 2831 00b2 4FF40032 		mov	r2, #131072
 2832 00b6 00E0     		b	.L192
 2833              	.L195:
 2834 00b8 0022     		movs	r2, #0
 2835              	.L192:
ARM GAS  /tmp/cckeRSC8.s 			page 82


1505:HALLIB/Src/stm32f7xx_ll_usb.c ****                              ((((epnum & 0x80) == 0x80)<< 15) & USB_OTG_HCCHAR_EPDIR)|\
 2836              		.loc 1 1505 0
 2837 00ba 1343     		orrs	r3, r3, r2
1507:HALLIB/Src/stm32f7xx_ll_usb.c ****                              ((ep_type << 18) & USB_OTG_HCCHAR_EPTYP)|\
 2838              		.loc 1 1507 0
 2839 00bc A204     		lsls	r2, r4, #18
 2840 00be 02F44022 		and	r2, r2, #786432
1506:HALLIB/Src/stm32f7xx_ll_usb.c ****                              (((speed == HPRT0_PRTSPD_LOW_SPEED)<< 17) & USB_OTG_HCCHAR_LSDEV)|\
 2841              		.loc 1 1506 0
 2842 00c2 1343     		orrs	r3, r3, r2
1508:HALLIB/Src/stm32f7xx_ll_usb.c ****                              (mps & USB_OTG_HCCHAR_MPSIZ));
 2843              		.loc 1 1508 0
 2844 00c4 BDF81C20 		ldrh	r2, [sp, #28]
 2845 00c8 C2F30A02 		ubfx	r2, r2, #0, #11
1507:HALLIB/Src/stm32f7xx_ll_usb.c ****                              ((ep_type << 18) & USB_OTG_HCCHAR_EPTYP)|\
 2846              		.loc 1 1507 0
 2847 00cc 1343     		orrs	r3, r3, r2
1503:HALLIB/Src/stm32f7xx_ll_usb.c ****                              (((epnum & 0x7F)<< 11) & USB_OTG_HCCHAR_EPNUM)|\
 2848              		.loc 1 1503 0
 2849 00ce C5F80035 		str	r3, [r5, #1280]
1509:HALLIB/Src/stm32f7xx_ll_usb.c **** 
1510:HALLIB/Src/stm32f7xx_ll_usb.c ****   if (ep_type == EP_TYPE_INTR)
 2850              		.loc 1 1510 0
 2851 00d2 032C     		cmp	r4, #3
 2852 00d4 05D1     		bne	.L193
1511:HALLIB/Src/stm32f7xx_ll_usb.c ****   {
1512:HALLIB/Src/stm32f7xx_ll_usb.c ****     USBx_HC(ch_num)->HCCHAR |= USB_OTG_HCCHAR_ODDFRM ;
 2853              		.loc 1 1512 0
 2854 00d6 D5F80035 		ldr	r3, [r5, #1280]
 2855 00da 43F00053 		orr	r3, r3, #536870912
 2856 00de C5F80035 		str	r3, [r5, #1280]
 2857              	.L193:
1513:HALLIB/Src/stm32f7xx_ll_usb.c ****   }
1514:HALLIB/Src/stm32f7xx_ll_usb.c **** 
1515:HALLIB/Src/stm32f7xx_ll_usb.c ****   return HAL_OK;
1516:HALLIB/Src/stm32f7xx_ll_usb.c **** }
 2858              		.loc 1 1516 0
 2859 00e2 0020     		movs	r0, #0
 2860              	.LVL206:
 2861 00e4 F0BD     		pop	{r4, r5, r6, r7, pc}
 2862              		.cfi_endproc
 2863              	.LFE175:
 2865 00e6 00BF     		.section	.text.USB_HC_ReadInterrupt,"ax",%progbits
 2866              		.align	2
 2867              		.global	USB_HC_ReadInterrupt
 2868              		.thumb
 2869              		.thumb_func
 2871              	USB_HC_ReadInterrupt:
 2872              	.LFB177:
1517:HALLIB/Src/stm32f7xx_ll_usb.c **** 
1518:HALLIB/Src/stm32f7xx_ll_usb.c **** /**
1519:HALLIB/Src/stm32f7xx_ll_usb.c ****   * @brief  Start a transfer over a host channel
1520:HALLIB/Src/stm32f7xx_ll_usb.c ****   * @param  USBx  Selected device
1521:HALLIB/Src/stm32f7xx_ll_usb.c ****   * @param  hc  pointer to host channel structure
1522:HALLIB/Src/stm32f7xx_ll_usb.c ****   * @param  dma USB dma enabled or disabled
1523:HALLIB/Src/stm32f7xx_ll_usb.c ****   *          This parameter can be one of these values:
1524:HALLIB/Src/stm32f7xx_ll_usb.c ****   *           0 : DMA feature not used
ARM GAS  /tmp/cckeRSC8.s 			page 83


1525:HALLIB/Src/stm32f7xx_ll_usb.c ****   *           1 : DMA feature used
1526:HALLIB/Src/stm32f7xx_ll_usb.c ****   * @retval HAL state
1527:HALLIB/Src/stm32f7xx_ll_usb.c ****   */
1528:HALLIB/Src/stm32f7xx_ll_usb.c **** HAL_StatusTypeDef USB_HC_StartXfer(USB_OTG_GlobalTypeDef *USBx, USB_OTG_HCTypeDef *hc, uint8_t dma)
1529:HALLIB/Src/stm32f7xx_ll_usb.c **** {
1530:HALLIB/Src/stm32f7xx_ll_usb.c ****   static __IO uint32_t tmpreg = 0;
1531:HALLIB/Src/stm32f7xx_ll_usb.c ****   uint8_t  is_oddframe = 0;
1532:HALLIB/Src/stm32f7xx_ll_usb.c ****   uint16_t len_words = 0;
1533:HALLIB/Src/stm32f7xx_ll_usb.c ****   uint16_t num_packets = 0;
1534:HALLIB/Src/stm32f7xx_ll_usb.c ****   uint16_t max_hc_pkt_count = 256;
1535:HALLIB/Src/stm32f7xx_ll_usb.c **** 
1536:HALLIB/Src/stm32f7xx_ll_usb.c ****   if((USBx != USB_OTG_FS) && (hc->speed == USB_OTG_SPEED_HIGH))
1537:HALLIB/Src/stm32f7xx_ll_usb.c ****   {
1538:HALLIB/Src/stm32f7xx_ll_usb.c ****     if((dma == 0) && (hc->do_ping == 1))
1539:HALLIB/Src/stm32f7xx_ll_usb.c ****     {
1540:HALLIB/Src/stm32f7xx_ll_usb.c ****       USB_DoPing(USBx, hc->ch_num);
1541:HALLIB/Src/stm32f7xx_ll_usb.c ****       return HAL_OK;
1542:HALLIB/Src/stm32f7xx_ll_usb.c ****     }
1543:HALLIB/Src/stm32f7xx_ll_usb.c ****     else if(dma == 1)
1544:HALLIB/Src/stm32f7xx_ll_usb.c ****     {
1545:HALLIB/Src/stm32f7xx_ll_usb.c ****       USBx_HC(hc->ch_num)->HCINTMSK &= ~(USB_OTG_HCINTMSK_NYET | USB_OTG_HCINTMSK_ACKM);
1546:HALLIB/Src/stm32f7xx_ll_usb.c ****       hc->do_ping = 0;
1547:HALLIB/Src/stm32f7xx_ll_usb.c ****     }
1548:HALLIB/Src/stm32f7xx_ll_usb.c ****   }
1549:HALLIB/Src/stm32f7xx_ll_usb.c **** 
1550:HALLIB/Src/stm32f7xx_ll_usb.c ****   /* Compute the expected number of packets associated to the transfer */
1551:HALLIB/Src/stm32f7xx_ll_usb.c ****   if (hc->xfer_len > 0)
1552:HALLIB/Src/stm32f7xx_ll_usb.c ****   {
1553:HALLIB/Src/stm32f7xx_ll_usb.c ****     num_packets = (hc->xfer_len + hc->max_packet - 1) / hc->max_packet;
1554:HALLIB/Src/stm32f7xx_ll_usb.c **** 
1555:HALLIB/Src/stm32f7xx_ll_usb.c ****     if (num_packets > max_hc_pkt_count)
1556:HALLIB/Src/stm32f7xx_ll_usb.c ****     {
1557:HALLIB/Src/stm32f7xx_ll_usb.c ****       num_packets = max_hc_pkt_count;
1558:HALLIB/Src/stm32f7xx_ll_usb.c ****       hc->xfer_len = num_packets * hc->max_packet;
1559:HALLIB/Src/stm32f7xx_ll_usb.c ****     }
1560:HALLIB/Src/stm32f7xx_ll_usb.c ****   }
1561:HALLIB/Src/stm32f7xx_ll_usb.c ****   else
1562:HALLIB/Src/stm32f7xx_ll_usb.c ****   {
1563:HALLIB/Src/stm32f7xx_ll_usb.c ****     num_packets = 1;
1564:HALLIB/Src/stm32f7xx_ll_usb.c ****   }
1565:HALLIB/Src/stm32f7xx_ll_usb.c ****   if (hc->ep_is_in)
1566:HALLIB/Src/stm32f7xx_ll_usb.c ****   {
1567:HALLIB/Src/stm32f7xx_ll_usb.c ****     hc->xfer_len = num_packets * hc->max_packet;
1568:HALLIB/Src/stm32f7xx_ll_usb.c ****   }
1569:HALLIB/Src/stm32f7xx_ll_usb.c **** 
1570:HALLIB/Src/stm32f7xx_ll_usb.c ****   /* Initialize the HCTSIZn register */
1571:HALLIB/Src/stm32f7xx_ll_usb.c ****   USBx_HC(hc->ch_num)->HCTSIZ = (((hc->xfer_len) & USB_OTG_HCTSIZ_XFRSIZ)) |\
1572:HALLIB/Src/stm32f7xx_ll_usb.c ****     ((num_packets << 19) & USB_OTG_HCTSIZ_PKTCNT) |\
1573:HALLIB/Src/stm32f7xx_ll_usb.c ****       (((hc->data_pid) << 29) & USB_OTG_HCTSIZ_DPID);
1574:HALLIB/Src/stm32f7xx_ll_usb.c **** 
1575:HALLIB/Src/stm32f7xx_ll_usb.c ****   if (dma)
1576:HALLIB/Src/stm32f7xx_ll_usb.c ****   {
1577:HALLIB/Src/stm32f7xx_ll_usb.c ****     /* xfer_buff MUST be 32-bits aligned */
1578:HALLIB/Src/stm32f7xx_ll_usb.c ****     USBx_HC(hc->ch_num)->HCDMA = (uint32_t)hc->xfer_buff;
1579:HALLIB/Src/stm32f7xx_ll_usb.c ****   }
1580:HALLIB/Src/stm32f7xx_ll_usb.c **** 
1581:HALLIB/Src/stm32f7xx_ll_usb.c ****   is_oddframe = (USBx_HOST->HFNUM & 0x01) ? 0 : 1;
ARM GAS  /tmp/cckeRSC8.s 			page 84


1582:HALLIB/Src/stm32f7xx_ll_usb.c ****   USBx_HC(hc->ch_num)->HCCHAR &= ~USB_OTG_HCCHAR_ODDFRM;
1583:HALLIB/Src/stm32f7xx_ll_usb.c ****   USBx_HC(hc->ch_num)->HCCHAR |= (is_oddframe << 29);
1584:HALLIB/Src/stm32f7xx_ll_usb.c **** 
1585:HALLIB/Src/stm32f7xx_ll_usb.c ****   /* Set host channel enable */
1586:HALLIB/Src/stm32f7xx_ll_usb.c ****   tmpreg = USBx_HC(hc->ch_num)->HCCHAR;
1587:HALLIB/Src/stm32f7xx_ll_usb.c ****   tmpreg &= ~USB_OTG_HCCHAR_CHDIS;
1588:HALLIB/Src/stm32f7xx_ll_usb.c **** 
1589:HALLIB/Src/stm32f7xx_ll_usb.c ****   /* make sure to set the correct ep direction */
1590:HALLIB/Src/stm32f7xx_ll_usb.c ****   if (hc->ep_is_in)
1591:HALLIB/Src/stm32f7xx_ll_usb.c ****   {
1592:HALLIB/Src/stm32f7xx_ll_usb.c ****     tmpreg |= USB_OTG_HCCHAR_EPDIR;
1593:HALLIB/Src/stm32f7xx_ll_usb.c ****   }
1594:HALLIB/Src/stm32f7xx_ll_usb.c ****   else
1595:HALLIB/Src/stm32f7xx_ll_usb.c ****   {
1596:HALLIB/Src/stm32f7xx_ll_usb.c ****      tmpreg &= ~USB_OTG_HCCHAR_EPDIR;
1597:HALLIB/Src/stm32f7xx_ll_usb.c ****   }
1598:HALLIB/Src/stm32f7xx_ll_usb.c ****   tmpreg |= USB_OTG_HCCHAR_CHENA;
1599:HALLIB/Src/stm32f7xx_ll_usb.c ****   USBx_HC(hc->ch_num)->HCCHAR = tmpreg;
1600:HALLIB/Src/stm32f7xx_ll_usb.c **** 
1601:HALLIB/Src/stm32f7xx_ll_usb.c ****   if (dma == 0) /* Slave mode */
1602:HALLIB/Src/stm32f7xx_ll_usb.c ****   {
1603:HALLIB/Src/stm32f7xx_ll_usb.c ****     if((hc->ep_is_in == 0) && (hc->xfer_len > 0))
1604:HALLIB/Src/stm32f7xx_ll_usb.c ****     {
1605:HALLIB/Src/stm32f7xx_ll_usb.c ****       switch(hc->ep_type)
1606:HALLIB/Src/stm32f7xx_ll_usb.c ****       {
1607:HALLIB/Src/stm32f7xx_ll_usb.c ****         /* Non periodic transfer */
1608:HALLIB/Src/stm32f7xx_ll_usb.c ****       case EP_TYPE_CTRL:
1609:HALLIB/Src/stm32f7xx_ll_usb.c ****       case EP_TYPE_BULK:
1610:HALLIB/Src/stm32f7xx_ll_usb.c **** 
1611:HALLIB/Src/stm32f7xx_ll_usb.c ****         len_words = (hc->xfer_len + 3) / 4;
1612:HALLIB/Src/stm32f7xx_ll_usb.c **** 
1613:HALLIB/Src/stm32f7xx_ll_usb.c ****         /* check if there is enough space in FIFO space */
1614:HALLIB/Src/stm32f7xx_ll_usb.c ****         if(len_words > (USBx->HNPTXSTS & 0xFFFF))
1615:HALLIB/Src/stm32f7xx_ll_usb.c ****         {
1616:HALLIB/Src/stm32f7xx_ll_usb.c ****           /* need to process data in nptxfempty interrupt */
1617:HALLIB/Src/stm32f7xx_ll_usb.c ****           USBx->GINTMSK |= USB_OTG_GINTMSK_NPTXFEM;
1618:HALLIB/Src/stm32f7xx_ll_usb.c ****         }
1619:HALLIB/Src/stm32f7xx_ll_usb.c ****         break;
1620:HALLIB/Src/stm32f7xx_ll_usb.c ****         /* Periodic transfer */
1621:HALLIB/Src/stm32f7xx_ll_usb.c ****       case EP_TYPE_INTR:
1622:HALLIB/Src/stm32f7xx_ll_usb.c ****       case EP_TYPE_ISOC:
1623:HALLIB/Src/stm32f7xx_ll_usb.c ****         len_words = (hc->xfer_len + 3) / 4;
1624:HALLIB/Src/stm32f7xx_ll_usb.c ****         /* check if there is enough space in FIFO space */
1625:HALLIB/Src/stm32f7xx_ll_usb.c ****         if(len_words > (USBx_HOST->HPTXSTS & 0xFFFF)) /* split the transfer */
1626:HALLIB/Src/stm32f7xx_ll_usb.c ****         {
1627:HALLIB/Src/stm32f7xx_ll_usb.c ****           /* need to process data in ptxfempty interrupt */
1628:HALLIB/Src/stm32f7xx_ll_usb.c ****           USBx->GINTMSK |= USB_OTG_GINTMSK_PTXFEM;
1629:HALLIB/Src/stm32f7xx_ll_usb.c ****         }
1630:HALLIB/Src/stm32f7xx_ll_usb.c ****         break;
1631:HALLIB/Src/stm32f7xx_ll_usb.c **** 
1632:HALLIB/Src/stm32f7xx_ll_usb.c ****       default:
1633:HALLIB/Src/stm32f7xx_ll_usb.c ****         break;
1634:HALLIB/Src/stm32f7xx_ll_usb.c ****       }
1635:HALLIB/Src/stm32f7xx_ll_usb.c **** 
1636:HALLIB/Src/stm32f7xx_ll_usb.c ****       /* Write packet into the Tx FIFO. */
1637:HALLIB/Src/stm32f7xx_ll_usb.c ****       USB_WritePacket(USBx, hc->xfer_buff, hc->ch_num, hc->xfer_len, 0);
1638:HALLIB/Src/stm32f7xx_ll_usb.c ****     }
ARM GAS  /tmp/cckeRSC8.s 			page 85


1639:HALLIB/Src/stm32f7xx_ll_usb.c ****   }
1640:HALLIB/Src/stm32f7xx_ll_usb.c **** 
1641:HALLIB/Src/stm32f7xx_ll_usb.c ****   return HAL_OK;
1642:HALLIB/Src/stm32f7xx_ll_usb.c **** }
1643:HALLIB/Src/stm32f7xx_ll_usb.c **** 
1644:HALLIB/Src/stm32f7xx_ll_usb.c **** /**
1645:HALLIB/Src/stm32f7xx_ll_usb.c ****   * @brief Read all host channel interrupts status
1646:HALLIB/Src/stm32f7xx_ll_usb.c ****   * @param  USBx  Selected device
1647:HALLIB/Src/stm32f7xx_ll_usb.c ****   * @retval HAL state
1648:HALLIB/Src/stm32f7xx_ll_usb.c ****   */
1649:HALLIB/Src/stm32f7xx_ll_usb.c **** uint32_t USB_HC_ReadInterrupt (USB_OTG_GlobalTypeDef *USBx)
1650:HALLIB/Src/stm32f7xx_ll_usb.c **** {
 2873              		.loc 1 1650 0
 2874              		.cfi_startproc
 2875              		@ args = 0, pretend = 0, frame = 0
 2876              		@ frame_needed = 0, uses_anonymous_args = 0
 2877              		@ link register save eliminated.
 2878              	.LVL207:
1651:HALLIB/Src/stm32f7xx_ll_usb.c ****   return ((USBx_HOST->HAINT) & 0xFFFF);
 2879              		.loc 1 1651 0
 2880 0000 00F58060 		add	r0, r0, #1024
 2881              	.LVL208:
 2882 0004 4069     		ldr	r0, [r0, #20]
 2883              	.LVL209:
1652:HALLIB/Src/stm32f7xx_ll_usb.c **** }
 2884              		.loc 1 1652 0
 2885 0006 80B2     		uxth	r0, r0
 2886 0008 7047     		bx	lr
 2887              		.cfi_endproc
 2888              	.LFE177:
 2890 000a 00BF     		.section	.text.USB_HC_Halt,"ax",%progbits
 2891              		.align	2
 2892              		.global	USB_HC_Halt
 2893              		.thumb
 2894              		.thumb_func
 2896              	USB_HC_Halt:
 2897              	.LFB178:
1653:HALLIB/Src/stm32f7xx_ll_usb.c **** 
1654:HALLIB/Src/stm32f7xx_ll_usb.c **** /**
1655:HALLIB/Src/stm32f7xx_ll_usb.c ****   * @brief  Halt a host channel
1656:HALLIB/Src/stm32f7xx_ll_usb.c ****   * @param  USBx  Selected device
1657:HALLIB/Src/stm32f7xx_ll_usb.c ****   * @param  hc_num  Host Channel number
1658:HALLIB/Src/stm32f7xx_ll_usb.c ****   *         This parameter can be a value from 1 to 15
1659:HALLIB/Src/stm32f7xx_ll_usb.c ****   * @retval HAL state
1660:HALLIB/Src/stm32f7xx_ll_usb.c ****   */
1661:HALLIB/Src/stm32f7xx_ll_usb.c **** HAL_StatusTypeDef USB_HC_Halt(USB_OTG_GlobalTypeDef *USBx , uint8_t hc_num)
1662:HALLIB/Src/stm32f7xx_ll_usb.c **** {
 2898              		.loc 1 1662 0
 2899              		.cfi_startproc
 2900              		@ args = 0, pretend = 0, frame = 0
 2901              		@ frame_needed = 0, uses_anonymous_args = 0
 2902              		@ link register save eliminated.
 2903              	.LVL210:
 2904 0000 10B4     		push	{r4}
 2905              	.LCFI49:
 2906              		.cfi_def_cfa_offset 4
 2907              		.cfi_offset 4, -4
ARM GAS  /tmp/cckeRSC8.s 			page 86


 2908              	.LVL211:
1663:HALLIB/Src/stm32f7xx_ll_usb.c ****   uint32_t count = 0;
1664:HALLIB/Src/stm32f7xx_ll_usb.c **** 
1665:HALLIB/Src/stm32f7xx_ll_usb.c ****   /* Check for space in the request queue to issue the halt. */
1666:HALLIB/Src/stm32f7xx_ll_usb.c ****   if (((((USBx_HC(hc_num)->HCCHAR) & USB_OTG_HCCHAR_EPTYP) >> 18) == HCCHAR_CTRL) ||
 2909              		.loc 1 1666 0
 2910 0002 00EB4111 		add	r1, r0, r1, lsl #5
 2911              	.LVL212:
 2912 0006 01F5A064 		add	r4, r1, #1280
 2913 000a D1F80035 		ldr	r3, [r1, #1280]
 2914 000e 13F4402F 		tst	r3, #786432
 2915 0012 05D0     		beq	.L199
1667:HALLIB/Src/stm32f7xx_ll_usb.c ****      (((((USBx_HC(hc_num)->HCCHAR) & USB_OTG_HCCHAR_EPTYP) >> 18) == HCCHAR_BULK)))
 2916              		.loc 1 1667 0 discriminator 1
 2917 0014 D1F80035 		ldr	r3, [r1, #1280]
 2918 0018 C3F38143 		ubfx	r3, r3, #18, #2
1666:HALLIB/Src/stm32f7xx_ll_usb.c ****      (((((USBx_HC(hc_num)->HCCHAR) & USB_OTG_HCCHAR_EPTYP) >> 18) == HCCHAR_BULK)))
 2919              		.loc 1 1666 0 discriminator 1
 2920 001c 022B     		cmp	r3, #2
 2921 001e 2AD1     		bne	.L200
 2922              	.L199:
1668:HALLIB/Src/stm32f7xx_ll_usb.c ****   {
1669:HALLIB/Src/stm32f7xx_ll_usb.c ****     USBx_HC(hc_num)->HCCHAR |= USB_OTG_HCCHAR_CHDIS;
 2923              		.loc 1 1669 0
 2924 0020 D1F80035 		ldr	r3, [r1, #1280]
 2925 0024 43F08043 		orr	r3, r3, #1073741824
 2926 0028 C1F80035 		str	r3, [r1, #1280]
1670:HALLIB/Src/stm32f7xx_ll_usb.c **** 
1671:HALLIB/Src/stm32f7xx_ll_usb.c ****     if ((USBx->HNPTXSTS & 0xFFFF) == 0)
 2927              		.loc 1 1671 0
 2928 002c C36A     		ldr	r3, [r0, #44]
 2929 002e 9BB2     		uxth	r3, r3
 2930 0030 D3B9     		cbnz	r3, .L201
1672:HALLIB/Src/stm32f7xx_ll_usb.c ****     {
1673:HALLIB/Src/stm32f7xx_ll_usb.c ****       USBx_HC(hc_num)->HCCHAR &= ~USB_OTG_HCCHAR_CHENA;
 2931              		.loc 1 1673 0
 2932 0032 D1F80035 		ldr	r3, [r1, #1280]
 2933 0036 23F00043 		bic	r3, r3, #-2147483648
 2934 003a C1F80035 		str	r3, [r1, #1280]
1674:HALLIB/Src/stm32f7xx_ll_usb.c ****       USBx_HC(hc_num)->HCCHAR |= USB_OTG_HCCHAR_CHENA;
 2935              		.loc 1 1674 0
 2936 003e D1F80035 		ldr	r3, [r1, #1280]
 2937 0042 43F00043 		orr	r3, r3, #-2147483648
 2938 0046 C1F80035 		str	r3, [r1, #1280]
1675:HALLIB/Src/stm32f7xx_ll_usb.c ****       USBx_HC(hc_num)->HCCHAR &= ~USB_OTG_HCCHAR_EPDIR;
 2939              		.loc 1 1675 0
 2940 004a D1F80035 		ldr	r3, [r1, #1280]
 2941 004e 23F40043 		bic	r3, r3, #32768
 2942 0052 C1F80035 		str	r3, [r1, #1280]
1663:HALLIB/Src/stm32f7xx_ll_usb.c **** 
 2943              		.loc 1 1663 0
 2944 0056 0023     		movs	r3, #0
 2945              	.LVL213:
 2946              	.L203:
1676:HALLIB/Src/stm32f7xx_ll_usb.c ****       do
1677:HALLIB/Src/stm32f7xx_ll_usb.c ****       {
1678:HALLIB/Src/stm32f7xx_ll_usb.c ****         if (++count > 1000)
ARM GAS  /tmp/cckeRSC8.s 			page 87


 2947              		.loc 1 1678 0
 2948 0058 0133     		adds	r3, r3, #1
 2949              	.LVL214:
 2950 005a B3F57A7F 		cmp	r3, #1000
 2951 005e 35D8     		bhi	.L202
1679:HALLIB/Src/stm32f7xx_ll_usb.c ****         {
1680:HALLIB/Src/stm32f7xx_ll_usb.c ****           break;
1681:HALLIB/Src/stm32f7xx_ll_usb.c ****         }
1682:HALLIB/Src/stm32f7xx_ll_usb.c ****       }
1683:HALLIB/Src/stm32f7xx_ll_usb.c ****       while ((USBx_HC(hc_num)->HCCHAR & USB_OTG_HCCHAR_CHENA) == USB_OTG_HCCHAR_CHENA);
 2952              		.loc 1 1683 0
 2953 0060 2268     		ldr	r2, [r4]
 2954 0062 002A     		cmp	r2, #0
 2955 0064 F8DB     		blt	.L203
 2956 0066 31E0     		b	.L202
 2957              	.LVL215:
 2958              	.L201:
1684:HALLIB/Src/stm32f7xx_ll_usb.c ****     }
1685:HALLIB/Src/stm32f7xx_ll_usb.c ****     else
1686:HALLIB/Src/stm32f7xx_ll_usb.c ****     {
1687:HALLIB/Src/stm32f7xx_ll_usb.c ****       USBx_HC(hc_num)->HCCHAR |= USB_OTG_HCCHAR_CHENA;
 2959              		.loc 1 1687 0
 2960 0068 D1F80035 		ldr	r3, [r1, #1280]
 2961 006c 43F00043 		orr	r3, r3, #-2147483648
 2962 0070 C1F80035 		str	r3, [r1, #1280]
 2963 0074 2AE0     		b	.L202
 2964              	.L200:
1688:HALLIB/Src/stm32f7xx_ll_usb.c ****     }
1689:HALLIB/Src/stm32f7xx_ll_usb.c ****   }
1690:HALLIB/Src/stm32f7xx_ll_usb.c ****   else
1691:HALLIB/Src/stm32f7xx_ll_usb.c ****   {
1692:HALLIB/Src/stm32f7xx_ll_usb.c ****     USBx_HC(hc_num)->HCCHAR |= USB_OTG_HCCHAR_CHDIS;
 2965              		.loc 1 1692 0
 2966 0076 D1F80035 		ldr	r3, [r1, #1280]
 2967 007a 43F08043 		orr	r3, r3, #1073741824
 2968 007e C1F80035 		str	r3, [r1, #1280]
1693:HALLIB/Src/stm32f7xx_ll_usb.c **** 
1694:HALLIB/Src/stm32f7xx_ll_usb.c ****     if ((USBx_HOST->HPTXSTS & 0xFFFF) == 0)
 2969              		.loc 1 1694 0
 2970 0082 D0F81034 		ldr	r3, [r0, #1040]
 2971 0086 9BB2     		uxth	r3, r3
 2972 0088 D3B9     		cbnz	r3, .L204
1695:HALLIB/Src/stm32f7xx_ll_usb.c ****     {
1696:HALLIB/Src/stm32f7xx_ll_usb.c ****       USBx_HC(hc_num)->HCCHAR &= ~USB_OTG_HCCHAR_CHENA;
 2973              		.loc 1 1696 0
 2974 008a D1F80035 		ldr	r3, [r1, #1280]
 2975 008e 23F00043 		bic	r3, r3, #-2147483648
 2976 0092 C1F80035 		str	r3, [r1, #1280]
1697:HALLIB/Src/stm32f7xx_ll_usb.c ****       USBx_HC(hc_num)->HCCHAR |= USB_OTG_HCCHAR_CHENA;
 2977              		.loc 1 1697 0
 2978 0096 D1F80035 		ldr	r3, [r1, #1280]
 2979 009a 43F00043 		orr	r3, r3, #-2147483648
 2980 009e C1F80035 		str	r3, [r1, #1280]
1698:HALLIB/Src/stm32f7xx_ll_usb.c ****       USBx_HC(hc_num)->HCCHAR &= ~USB_OTG_HCCHAR_EPDIR;
 2981              		.loc 1 1698 0
 2982 00a2 D1F80035 		ldr	r3, [r1, #1280]
 2983 00a6 23F40043 		bic	r3, r3, #32768
ARM GAS  /tmp/cckeRSC8.s 			page 88


 2984 00aa C1F80035 		str	r3, [r1, #1280]
1663:HALLIB/Src/stm32f7xx_ll_usb.c **** 
 2985              		.loc 1 1663 0
 2986 00ae 0023     		movs	r3, #0
 2987              	.LVL216:
